EXPORTS
    _Z10antiSinCosdd @1
    _Z11getTraceLogv @2
    _Z11sysUsecTimev @3
    _Z12ComputeIkLibPdS_S_PA8_d @4
    _Z12getJacobiLibPA6_dPd @5
    _Z12getRobotTypev @6
    _Z12rs_str_errori @7
    _Z12setDhParaLen15aubo_robot_type @8
    _Z13ComputeFk_JYHPKdPdS1_ @9
    _Z15arrayInvChasingPdS_S_ib @10
    _Z15modifyDhParaLenPfS_ @11
    _Z17dampedLeastSquarePA6_dPdS1_ @12
    _Z17get_robot_servicet @13
    _Z18uBSpline3InterpLibSt6vectorI10wayPoint_SSaIS0_EEPS2_fbjPdi @14
    _Z18vectorCrossProductR3PosS_S_b @15
    _Z19get_robot_user_plant @16
    _Z20matrixMultiplicationPdS_S_jjjbb @17
    _Z22toolCoordinateCalibLibPdS_icPA9_dPA3_dbdS_S_ @18
    _Z22userCoordinateCalibLibP10wayPoint_ScPdS1_S1_Rd @19
    _Z24cartesianTrackArcParaLibSt6vectorI10wayPoint_SSaIS0_EEPA4_dRdS5_ @20
    _Z24robotSafetyConfigIsEqualRKN20aubo_robot_namespace17RobotSafetyConfigES2_ @21
    _Z25sphericalInterpolationLibR3OriS_S_ddd @22
    _Z26cartesianTrackMovepParaLibSt6vectorI10wayPoint_SSaIS0_EEfPdS3_P3PosS5_ @23
    _Z27AuboWayPointToikFunRoadPintRKN20aubo_robot_namespace10wayPoint_SER10wayPoint_S @24
    _Z27ikFunRoadPintToAuboWayPointRK10wayPoint_SRN20aubo_robot_namespace10wayPoint_SE @25
    _Z29positiveDefiniteMatrixInversePdi @26
    _Z7sprintfPcPKcz @27
    _Z9getDhParaRdS_S_S_S_S_Pd @28
    _ZN13RobotTraceLog10printTraceE9LOG_LEVELPKc @29
    _ZN13RobotTraceLogC1Ev @30
    _ZN13RobotTraceLogC2Ev @31
    _ZN14RobotIoService15initRobotIoDescERN20aubo_robot_namespace11RobotIoDescERKSsNS0_11RobotIoTypeES4_id @32
    _ZN14RobotIoService15setToolDOStatusEN20aubo_robot_namespace17ToolDigitalIOAddrENS0_9IO_STATUSE @33
    _ZN14RobotIoService15setToolDOStatusESsN20aubo_robot_namespace9IO_STATUSE @34
    _ZN14RobotIoService16getBoardIOConfigERKSt6vectorIN20aubo_robot_namespace11RobotIoTypeESaIS2_EERS0_INS1_11RobotIoDescESaIS7_EE @35
    _ZN14RobotIoService16getBoardIOStatusEN20aubo_robot_namespace11RobotIoTypeESsRd @36
    _ZN14RobotIoService16getBoardIOStatusEN20aubo_robot_namespace11RobotIoTypeEiRd @37
    _ZN14RobotIoService16getBoardIOStatusESt6vectorIN20aubo_robot_namespace11RobotIoTypeESaIS2_EERS0_INS1_11RobotIoDescESaIS5_EE @38
    _ZN14RobotIoService16initToolIoConfigEv @39
    _ZN14RobotIoService16setBoardIOStatusEN20aubo_robot_namespace11RobotIoTypeESsd @40
    _ZN14RobotIoService16setBoardIOStatusEN20aubo_robot_namespace11RobotIoTypeEid @41
    _ZN14RobotIoService17initBoardIoConfigEv @42
    _ZN14RobotIoService18getAllToolAIStatusERSt6vectorIN20aubo_robot_namespace11RobotIoDescESaIS2_EE @43
    _ZN14RobotIoService20setToolDigitalIOTypeEN20aubo_robot_namespace17ToolDigitalIOAddrENS0_10ToolIOTypeE @44
    _ZN14RobotIoService21getToolIoStatusByNameESsRd @45
    _ZN14RobotIoService23getToolPowerVoltageTypeERN20aubo_robot_namespace13ToolPowerTypeE @46
    _ZN14RobotIoService23setToolPowerVoltageTypeEN20aubo_robot_namespace13ToolPowerTypeE @47
    _ZN14RobotIoService25getAllToolDigitalIOStatusERSt6vectorIN20aubo_robot_namespace11RobotIoDescESaIS2_EE @48
    _ZN14RobotIoService25getToolPowerVoltageStatusERd @49
    _ZN14RobotIoService32setToolPowerTypeAndDigitalIOTypeEN20aubo_robot_namespace13ToolPowerTypeENS0_10ToolIOTypeES2_S2_S2_ @50
    _ZN14RobotIoServiceC1EP20RobotControlServices @51
    _ZN14RobotIoServiceC2EP20RobotControlServices @52
    _ZN16ErrorInfoService16getErrDescByCodeEN20aubo_robot_namespace14RobotErrorCodeE @53
    _ZN16ErrorInfoService19S_errInfoDescMapingE @54 DATA
    _ZN16ErrorInfoService21ResolveRobotErrorInfoERK14RobotErrorInfoRSs @55
    _ZN16ErrorInfoService21initErrInfoDescMapingEv @56
    _ZN16ErrorInfoService22S_isInitInfoDescMapingE @57 DATA
    _ZN16ErrorInfoService32robotErrorInfoNotifyEventResolveERKSsRSs @58
    _ZN16ErrorInfoServiceC1Ev @59
    _ZN16ErrorInfoServiceC2Ev @60
    _ZN16RobotMoveService11addWayPointERKN20aubo_robot_namespace10wayPoint_SE @61
    _ZN16RobotMoveService13printWaypointERN20aubo_robot_namespace10wayPoint_SE @62
    _ZN16RobotMoveService13robotLineMoveERN20aubo_robot_namespace10wayPoint_SEb @63
    _ZN16RobotMoveService14getBlendRadiusEv @64
    _ZN16RobotMoveService14robotJointMoveERN20aubo_robot_namespace10wayPoint_SEb @65
    _ZN16RobotMoveService14robotTeachMoveERK16RobotMoveProfileRKN20aubo_robot_namespace33CoordCalibrateByJointAngleAndToolE @66
    _ZN16RobotMoveService14robotTeachStopEv @67
    _ZN16RobotMoveService14robotTrackMoveEN20aubo_robot_namespace10move_trackEb @68
    _ZN16RobotMoveService14setBlendRadiusEf @69
    _ZN16RobotMoveService15initMoveProfileEv @70
    _ZN16RobotMoveService15moveBaseServiceENS_14RobotMoveClassERK16RobotMoveProfileRKSt6vectorIN20aubo_robot_namespace10wayPoint_SESaIS6_EEb @71
    _ZN16RobotMoveService15robotTeachStartEN20aubo_robot_namespace10teach_modeEb @72
    _ZN16RobotMoveService15setEnableIterIkEb @73
    _ZN16RobotMoveService16initClassProfileEv @74
    _ZN16RobotMoveService16robotMoveControlEN20aubo_robot_namespace23RobotMoveControlCommandE @75
    _ZN16RobotMoveService16robotMoveServiceERK16RobotMoveProfileRKSt6vectorIN20aubo_robot_namespace10wayPoint_SESaIS5_EEb @76
    _ZN16RobotMoveService17getWayPointVectorERSt6vectorIN20aubo_robot_namespace10wayPoint_SESaIS2_EE @77
    _ZN16RobotMoveService17robotMoveFastStopEv @78
    _ZN16RobotMoveService17setNoArrivalAheadEv @79
    _ZN16RobotMoveService18getMoveJointMaxAccERN20aubo_robot_namespace17JointVelcAccParamE @80
    _ZN16RobotMoveService18s_moveArrivalAheadE @81 DATA
    _ZN16RobotMoveService18setMoveJointMaxAccERKN20aubo_robot_namespace17JointVelcAccParamE @82
    _ZN16RobotMoveService19clearWayPointVectorEv @83
    _ZN16RobotMoveService19enterTcp2CanbusModeEv @84
    _ZN16RobotMoveService19getCurrnetRoadPointERN20aubo_robot_namespace10wayPoint_SE @85
    _ZN16RobotMoveService19getMoveJointMaxVelcERN20aubo_robot_namespace17JointVelcAccParamE @86
    _ZN16RobotMoveService19leaveTcp2CanbusModeEv @87
    _ZN16RobotMoveService19robotLineRotateMoveERKN20aubo_robot_namespace33CoordCalibrateByJointAngleAndToolEPKddb @88
    _ZN16RobotMoveService19setMoveJointMaxVelcERKN20aubo_robot_namespace17JointVelcAccParamE @89
    _ZN16RobotMoveService20getCircularLoopTimesEv @90
    _ZN16RobotMoveService20getMoveEndMaxLineAccERd @91
    _ZN16RobotMoveService20offlineTrackMoveStopEv @92
    _ZN16RobotMoveService20s_moveWayPointVectorE @93 DATA
    _ZN16RobotMoveService20setCircularLoopTimesEi @94
    _ZN16RobotMoveService20setMoveEndMaxLineAccEd @95
    _ZN16RobotMoveService21getMoveEndMaxAngleAccERd @96
    _ZN16RobotMoveService21getMoveEndMaxLineVelcERd @97
    _ZN16RobotMoveService21getTrackPlaybackCycleEv @98
    _ZN16RobotMoveService21s_moveProfileIsInitedE @99 DATA
    _ZN16RobotMoveService21setMoveEndMaxAngleAccEd @100
    _ZN16RobotMoveService21setMoveEndMaxLineVelcEd @101
    _ZN16RobotMoveService21setTrackPlaybackCycleEd @102
    _ZN16RobotMoveService22getMoveEndMaxAngleVelcERd @103
    _ZN16RobotMoveService22initDefaultMoveProfileER16RobotMoveProfile @104
    _ZN16RobotMoveService22s_moveProfileToolTrackE @105 DATA
    _ZN16RobotMoveService22setMoveEndMaxAngleVelcEd @106
    _ZN16RobotMoveService22setRobotPosData2CanbusERKSt6vectorIN20aubo_robot_namespace10wayPoint_SESaIS2_EE @107
    _ZN16RobotMoveService23getMoveProfileToolParamERN20aubo_robot_namespace13ToolInEndDescE @108
    _ZN16RobotMoveService23setArrivalAheadTimeModeEd @109
    _ZN16RobotMoveService23setMaxVelcAccByMoveModeEN20aubo_robot_namespace9move_modeENS0_10move_trackER16RobotMoveProfile @110
    _ZN16RobotMoveService23setMoveProfileToolParamERKN20aubo_robot_namespace13ToolInEndDescE @111
    _ZN16RobotMoveService23startupOfflineExcitTrajEPKcN20aubo_robot_namespace23Robot_Dyn_identify_trajEib @112
    _ZN16RobotMoveService24robotFollowModeJointMoveERN20aubo_robot_namespace10wayPoint_SE @113
    _ZN16RobotMoveService24s_moveProfileBlendRadiusE @114 DATA
    _ZN16RobotMoveService24s_moveProfileJointMaxAccE @115 DATA
    _ZN16RobotMoveService24setTeachCoordinateSystemERKN20aubo_robot_namespace33CoordCalibrateByJointAngleAndToolE @116
    _ZN16RobotMoveService25offlineTrackWaypointClearEv @117
    _ZN16RobotMoveService25s_moveProfileEnableIterIkE @118 DATA
    _ZN16RobotMoveService25s_moveProfileJointMaxVelcE @119 DATA
    _ZN16RobotMoveService25s_offlineTrackRecognitionE @120 DATA
    _ZN16RobotMoveService26offlineTrackWaypointAppendERKSt6vectorIN20aubo_robot_namespace10wayPoint_SESaIS2_EE @121
    _ZN16RobotMoveService26s_moveProfileEndMaxLineAccE @122 DATA
    _ZN16RobotMoveService26s_moveProfileRelativeParamE @123 DATA
    _ZN16RobotMoveService26s_moveProfileToolInEndDescE @124 DATA
    _ZN16RobotMoveService27getTargetWaypointByPositionERKN20aubo_robot_namespace10wayPoint_SERKNS0_33CoordCalibrateByJointAngleAndToolERKNS0_3PosERKNS0_13ToolInEndDescERS1_ @125
    _ZN16RobotMoveService27getTargetWaypointByRelativeERKN20aubo_robot_namespace10wayPoint_SERKNS0_33CoordCalibrateByJointAngleAndToolERKNS0_13ToolInEndDescERKNS0_12MoveRelativeERS1_ @126
    _ZN16RobotMoveService27s_moveProfileEndMaxAngleAccE @127 DATA
    _ZN16RobotMoveService27s_moveProfileEndMaxLineVelcE @128 DATA
    _ZN16RobotMoveService27s_teachMoveCoordinateSystemE @129 DATA
    _ZN16RobotMoveService27setArrivalAheadDistanceModeEd @130
    _ZN16RobotMoveService27setMoveProfileRelativeParamERKN20aubo_robot_namespace12MoveRelativeE @131
    _ZN16RobotMoveService27setMoveProfileRelativeParamERKN20aubo_robot_namespace12MoveRelativeERKNS0_33CoordCalibrateByJointAngleAndToolE @132
    _ZN16RobotMoveService28s_moveProfileEndMaxAngleVelcE @133 DATA
    _ZN16RobotMoveService29setMoveProfileToolParamIsNoneEv @134
    _ZN16RobotMoveService30offlineTrackMoveStartupServiceEb @135
    _ZN16RobotMoveService30offlineTrackStartupBaseServiceEv @136
    _ZN16RobotMoveService30s_moveProfileCircularLoopTimesE @137 DATA
    _ZN16RobotMoveService31s_moveProfileTrackPlaybackCycleE @138 DATA
    _ZN16RobotMoveService32setArrivalAheadBlendDistanceModeEd @139
    _ZN16RobotMoveService33getCurrentMoveProfileRemoveOffsetEN20aubo_robot_namespace9move_modeENS0_10move_trackENS0_10teach_modeER16RobotMoveProfile @140
    _ZN16RobotMoveService35robotMoveToTargetPositionByPositionEN20aubo_robot_namespace9move_modeERKNS0_33CoordCalibrateByJointAngleAndToolERKNS0_3PosERKNS0_13ToolInEndDescEb @141
    _ZN16RobotMoveService35robotMoveToTargetPositionByRelativeEN20aubo_robot_namespace9move_modeERKNS0_33CoordCalibrateByJointAngleAndToolERKNS0_13ToolInEndDescERKNS0_12MoveRelativeEb @142
    _ZN16RobotMoveService42moveProfileAndWaypointsFormatCommunicationEN21CommunicationMateType24CommunicationCommandTypeERK16RobotMoveProfileRKSt6vectorIN20aubo_robot_namespace10wayPoint_SESaIS7_EE @143
    _ZN16RobotMoveService43getJointAngleByTargetPositionKeepCurrentOriERKN20aubo_robot_namespace33CoordCalibrateByJointAngleAndToolERKNS0_3PosERKNS0_13ToolInEndDescERNS0_10wayPoint_SE @144
    _ZN16RobotMoveService44modifyOffsetProfileByWaypointAndGlobalOffsetEN20aubo_robot_namespace10wayPoint_SER16RobotMoveProfile @145
    _ZN16RobotMoveServiceC1EP20RobotControlServices @146
    _ZN16RobotMoveServiceC2EP20RobotControlServices @147
    _ZN16RobotUtilService10isNoneToolERKN20aubo_robot_namespace13ToolInEndDescE @148
    _ZN16RobotUtilService15RPYToQuaternionERKN20aubo_robot_namespace3RpyERNS0_3OriE @149
    _ZN16RobotUtilService15initOriDataTypeERN20aubo_robot_namespace3OriE @150
    _ZN16RobotUtilService15initOrientationERN20aubo_robot_namespace3OriE @151
    _ZN16RobotUtilService15initPosDataTypeERN20aubo_robot_namespace3PosE @152
    _ZN16RobotUtilService15quaternionToRPYERKN20aubo_robot_namespace3OriERNS0_3RpyE @153
    _ZN16RobotUtilService15setJoint6Rot360Eb @154
    _ZN16RobotUtilService15setRobotDhParamEiRKN20aubo_robot_namespace11RobotDhParaE @155
    _ZN16RobotUtilService15toolCalibrationERKSt6vectorIN20aubo_robot_namespace10wayPoint_SESaIS2_EES6_NS1_32ToolKinematicsOriCalibrateMathodERNS1_13ToolInEndDescE @156
    _ZN16RobotUtilService15toolCalibrationERKSt6vectorIN20aubo_robot_namespace10wayPoint_SESaIS2_EEcRNS1_13ToolInEndDescE @157
    _ZN16RobotUtilService18relativeMoveAndRotERN20aubo_robot_namespace10wayPoint_SERKNS0_33CoordCalibrateByJointAngleAndToolENS0_13ToolInEndDescERKNS0_3PosERKNS0_3OriERS7_RSA_ @158
    _ZN16RobotUtilService19base2UserCoordinateERKN20aubo_robot_namespace3PosERKNS0_3OriERKNS0_33CoordCalibrateByJointAngleAndToolERKNS0_13ToolInEndDescERS1_RS4_ @159
    _ZN16RobotUtilService19user2BaseCoordinateERKN20aubo_robot_namespace3PosERKNS0_3OriERKNS0_33CoordCalibrateByJointAngleAndToolERKNS0_13ToolInEndDescERS1_RS4_ @160
    _ZN16RobotUtilService20initWayPointDataTypeERN20aubo_robot_namespace10wayPoint_SE @161
    _ZN16RobotUtilService21jointStringToWaypointERKSsRN20aubo_robot_namespace10wayPoint_SE @162
    _ZN16RobotUtilService23base2BaseAdditionalToolERKN20aubo_robot_namespace10wayPoint_SERKNS0_13ToolInEndDescERS1_ @163
    _ZN16RobotUtilService23initToolInertiaDataTypeERN20aubo_robot_namespace11ToolInertiaE @164
    _ZN16RobotUtilService24endPosition2BasePositionERKN20aubo_robot_namespace10wayPoint_SERKNS0_3PosERS4_ @165
    _ZN16RobotUtilService24initMoveRelativeDataTypeERN20aubo_robot_namespace12MoveRelativeE @166
    _ZN16RobotUtilService24userCoordPoint2BasePointERKN20aubo_robot_namespace3PosERKNS0_33CoordCalibrateByJointAngleAndToolERS1_ @167
    _ZN16RobotUtilService25CoordCalibrateTypeConvertERKN20aubo_robot_namespace33CoordCalibrateByJointAngleAndToolER28CoordCalibrateByToolEndPoint @168
    _ZN16RobotUtilService25initToolInEndDescDataTypeERN20aubo_robot_namespace13ToolInEndDescE @169
    _ZN16RobotUtilService26base2UserCoordinatePrivateERKN20aubo_robot_namespace10wayPoint_SERK28CoordCalibrateByToolEndPointRKNS0_13ToolInEndDescERS1_ @170
    _ZN16RobotUtilService26offsetVectorUserCoord2BaseEPKdRKN20aubo_robot_namespace33CoordCalibrateByJointAngleAndToolEPd @171
    _ZN16RobotUtilService26user2BaseCoordinatePrivateERKN20aubo_robot_namespace10wayPoint_SERK28CoordCalibrateByToolEndPointRKNS0_13ToolInEndDescERS1_ @172
    _ZN16RobotUtilService27coordinateSystemCalibrationERK28CoordCalibrateByToolEndPointPdS3_S3_ @173
    _ZN16RobotUtilService27coordinateSystemCalibrationERKN20aubo_robot_namespace33CoordCalibrateByJointAngleAndToolEPdS4_S4_ @174
    _ZN16RobotUtilService29initToolDynamicsParamDataTypeERN20aubo_robot_namespace17ToolDynamicsParamE @175
    _ZN16RobotUtilService30endOrientation2ToolOrientationERN20aubo_robot_namespace3OriERKS1_S2_ @176
    _ZN16RobotUtilService30toolOrientation2EndOrientationERN20aubo_robot_namespace3OriERKS1_S2_ @177
    _ZN16RobotUtilService32checkCoordinateSystemCalibrationERKN20aubo_robot_namespace33CoordCalibrateByJointAngleAndToolE @178
    _ZN16RobotUtilService45initCoordCalibrateByJointAngleAndToolDataTypeERN20aubo_robot_namespace33CoordCalibrateByJointAngleAndToolE @179
    _ZN16RobotUtilService7robotFkEPKdiRN20aubo_robot_namespace10wayPoint_SE @180
    _ZN16RobotUtilService7robotIkEPKdRKN20aubo_robot_namespace3PosERKNS2_3OriERNS2_10wayPoint_SE @181
    _ZN16RobotUtilServiceC1Ev @182
    _ZN16RobotUtilServiceC2Ev @183
    _ZN16ServiceInterface15RPYToQuaternionERKN20aubo_robot_namespace3RpyERNS0_3OriE @184
    _ZN16ServiceInterface15initOriDataTypeERN20aubo_robot_namespace3OriE @185
    _ZN16ServiceInterface15initPosDataTypeERN20aubo_robot_namespace3PosE @186
    _ZN16ServiceInterface15quaternionToRPYERKN20aubo_robot_namespace3OriERNS0_3RpyE @187
    _ZN16ServiceInterface16getErrDescByCodeEN20aubo_robot_namespace14RobotErrorCodeE @188
    _ZN16ServiceInterface17robotMoveFastStopEv @189
    _ZN16ServiceInterface17robotServiceLoginEPKciS1_S1_ @190
    _ZN16ServiceInterface17robotServiceLoginEPKciS1_S1_RN20aubo_robot_namespace9RobotTypeERNS2_11RobotDhParaE @191
    _ZN16ServiceInterface18robotServiceLogoutEv @192
    _ZN16ServiceInterface19robotServiceRobotFkEPKdiRN20aubo_robot_namespace10wayPoint_SE @193
    _ZN16ServiceInterface19robotServiceRobotIkEPKdRKN20aubo_robot_namespace3PosERKNS2_3OriERNS2_10wayPoint_SE @194
    _ZN16ServiceInterface20baseToUserCoordinateERKN20aubo_robot_namespace3PosERKNS0_3OriERKNS0_33CoordCalibrateByJointAngleAndToolERKNS0_13ToolInEndDescERS1_RS4_ @195
    _ZN16ServiceInterface20initWayPointDataTypeERN20aubo_robot_namespace10wayPoint_SE @196
    _ZN16ServiceInterface20robotServiceLineMoveEPdb @197
    _ZN16ServiceInterface20robotServiceLineMoveERN20aubo_robot_namespace10wayPoint_SEb @198
    _ZN16ServiceInterface20userToBaseCoordinateERKN20aubo_robot_namespace3PosERKNS0_3OriERKNS0_33CoordCalibrateByJointAngleAndToolERKNS0_13ToolInEndDescERS1_RS4_ @199
    _ZN16ServiceInterface21robotServiceJointMoveEPdb @200
    _ZN16ServiceInterface21robotServiceJointMoveERN20aubo_robot_namespace10wayPoint_SEb @201
    _ZN16ServiceInterface21robotServiceTeachStopEv @202
    _ZN16ServiceInterface21robotServiceTrackMoveEN20aubo_robot_namespace10move_trackEb @203
    _ZN16ServiceInterface22robotServiceRotateMoveERKN20aubo_robot_namespace33CoordCalibrateByJointAngleAndToolEPKddb @204
    _ZN16ServiceInterface22robotServiceTeachStartEN20aubo_robot_namespace10teach_modeEb @205
    _ZN16ServiceInterface23initToolInertiaDataTypeERN20aubo_robot_namespace11ToolInertiaE @206
    _ZN16ServiceInterface23rootServiceRobotControlEN20aubo_robot_namespace19RobotControlCommandE @207
    _ZN16ServiceInterface23rootServiceRobotStartupERKN20aubo_robot_namespace17ToolDynamicsParamEhbbiRNS0_19ROBOT_SERVICE_STATEEb @208
    _ZN16ServiceInterface24baseToBaseAdditionalToolERKN20aubo_robot_namespace3PosERKNS0_3OriERKNS0_13ToolInEndDescERS1_RS4_ @209
    _ZN16ServiceInterface24initMoveRelativeDataTypeERN20aubo_robot_namespace12MoveRelativeE @210
    _ZN16ServiceInterface24robotServiceIsOnlineModeERb @211
    _ZN16ServiceInterface24robotServicePowerControlEb @212
    _ZN16ServiceInterface24robotServiceReleaseBrakeEv @213
    _ZN16ServiceInterface24robotServiceSetRobotToolERKN20aubo_robot_namespace13ToolInEndDescE @214
    _ZN16ServiceInterface25initToolInEndDescDataTypeERN20aubo_robot_namespace13ToolInEndDescE @215
    _ZN16ServiceInterface25robotServiceRobotShutdownEb @216
    _ZN16ServiceInterface25userCoordPointToBasePointERKN20aubo_robot_namespace3PosERKNS0_33CoordCalibrateByJointAngleAndToolERS1_ @217
    _ZN16ServiceInterface26recvRobotEventPushCallbackEPKN20aubo_robot_namespace14RobotEventInfoEPv @218
    _ZN16ServiceInterface26robotServiceRobotHandShakeEb @219
    _ZN16ServiceInterface26robotServiceSetConveyorDirEi @220
    _ZN16ServiceInterface26robotServiceSetRobotMaxACCEi @221
    _ZN16ServiceInterface27getTargetWaypointByPositionERKN20aubo_robot_namespace10wayPoint_SERKNS0_33CoordCalibrateByJointAngleAndToolERKNS0_3PosERKNS0_13ToolInEndDescERS1_ @222
    _ZN16ServiceInterface27robotServiceGetToolIoStatusESsRd @223
    _ZN16ServiceInterface27robotServiceSetConveyorStopEv @224
    _ZN16ServiceInterface27robotServiceSetConveyorVelcEd @225
    _ZN16ServiceInterface27robotServiceSetToolDOStatusEN20aubo_robot_namespace17ToolDigitalIOAddrENS0_9IO_STATUSE @226
    _ZN16ServiceInterface27robotServiceSetToolDOStatusESsN20aubo_robot_namespace9IO_STATUSE @227
    _ZN16ServiceInterface27robotServiceToolCalibrationERKSt6vectorIN20aubo_robot_namespace10wayPoint_SESaIS2_EES6_NS1_32ToolKinematicsOriCalibrateMathodERNS1_13ToolInEndDescE @228
    _ZN16ServiceInterface27robotServiceToolCalibrationERKSt6vectorIN20aubo_robot_namespace10wayPoint_SESaIS2_EEcRNS1_13ToolInEndDescE @229
    _ZN16ServiceInterface27rootServiceRobotMoveControlEN20aubo_robot_namespace23RobotMoveControlCommandE @230
    _ZN16ServiceInterface28getDynIdentifyResultsServiceERSt6vectorIiSaIiEE @231
    _ZN16ServiceInterface28robotServiceCollisionRecoverEv @232
    _ZN16ServiceInterface28robotServiceGetBoardIOConfigERKSt6vectorIN20aubo_robot_namespace11RobotIoTypeESaIS2_EERS0_INS1_11RobotIoDescESaIS7_EE @233
    _ZN16ServiceInterface28robotServiceGetBoardIOStatusEN20aubo_robot_namespace11RobotIoTypeESsRd @234
    _ZN16ServiceInterface28robotServiceGetBoardIOStatusEN20aubo_robot_namespace11RobotIoTypeEiRd @235
    _ZN16ServiceInterface28robotServiceGetBoardIOStatusESt6vectorIN20aubo_robot_namespace11RobotIoTypeESaIS2_EERS0_INS1_11RobotIoDescESaIS5_EE @236
    _ZN16ServiceInterface28robotServiceGetConnectStatusERb @237
    _ZN16ServiceInterface28robotServiceGetRobotWorkModeERN20aubo_robot_namespace13RobotWorkModeE @238
    _ZN16ServiceInterface28robotServiceSetBoardIOStatusEN20aubo_robot_namespace11RobotIoTypeESsd @239
    _ZN16ServiceInterface28robotServiceSetBoardIOStatusEN20aubo_robot_namespace11RobotIoTypeEid @240
    _ZN16ServiceInterface28robotServiceSetRobotOrpeStopEh @241
    _ZN16ServiceInterface28robotServiceSetRobotWorkModeEN20aubo_robot_namespace13RobotWorkModeE @242
    _ZN16ServiceInterface29initToolDynamicsParamDataTypeERN20aubo_robot_namespace17ToolDynamicsParamE @243
    _ZN16ServiceInterface29robotMoveLineToTargetPositionERKN20aubo_robot_namespace33CoordCalibrateByJointAngleAndToolERKNS0_3PosERKNS0_13ToolInEndDescEb @244
    _ZN16ServiceInterface29robotServiceAddGlobalWayPointEPKd @245
    _ZN16ServiceInterface29robotServiceAddGlobalWayPointERKN20aubo_robot_namespace10wayPoint_SE @246
    _ZN16ServiceInterface29robotServiceGetJointAngleInfoERN20aubo_robot_namespace10JointParamE @247
    _ZN16ServiceInterface29robotServiceSetNoArrivalAheadEv @248
    _ZN16ServiceInterface29robotServiceSetRobotOrpeErrorEPhi @249
    _ZN16ServiceInterface29robotServiceSetRobotOrpePauseEh @250
    _ZN16ServiceInterface30endOrientation2ToolOrientationERN20aubo_robot_namespace3OriERKS1_S2_ @251
    _ZN16ServiceInterface30robotMoveJointToTargetPositionERKN20aubo_robot_namespace33CoordCalibrateByJointAngleAndToolERKNS0_3PosERKNS0_13ToolInEndDescEb @252
    _ZN16ServiceInterface30robotServiceGetAllToolAIStatusERSt6vectorIN20aubo_robot_namespace11RobotIoDescESaIS2_EE @253
    _ZN16ServiceInterface30robotServiceIsOnlineMasterModeERb @254
    _ZN16ServiceInterface30robotServiceSetConveyorStartupEv @255
    _ZN16ServiceInterface30startupOfflineExcitTrajServiceEPKcN20aubo_robot_namespace23Robot_Dyn_identify_trajEib @256
    _ZN16ServiceInterface30toolOrientation2EndOrientationERN20aubo_robot_namespace3OriERKS1_S2_ @257
    _ZN16ServiceInterface31robotServiceCheckUserCoordinateERKN20aubo_robot_namespace33CoordCalibrateByJointAngleAndToolE @258
    _ZN16ServiceInterface31robotServiceEnableConveyorTrackEv @259
    _ZN16ServiceInterface31robotServiceEnterTcp2CanbusModeEv @260
    _ZN16ServiceInterface31robotServiceFollowModeJointMoveEPd @261
    _ZN16ServiceInterface31robotServiceGetIsRealRobotExistERb @262
    _ZN16ServiceInterface31robotServiceGetOrpeSafetyStatusERN20aubo_robot_namespace16OrpeSafetyStatusE @263
    _ZN16ServiceInterface31robotServiceGetRobotJointStatusEPN20aubo_robot_namespace11JointStatusEi @264
    _ZN16ServiceInterface31robotServiceLeaveTcp2CanbusModeEv @265
    _ZN16ServiceInterface31robotServiceSetRobotCameraCalibERKN20aubo_robot_namespace13ToolInEndDescE @266
    _ZN16ServiceInterface31robotServiceSetRobotJointOffsetERN20aubo_robot_namespace16RobotJointOffsetE @267
    _ZN16ServiceInterface32recvRealTimeEndSpeedPushCallbackEdPv @268
    _ZN16ServiceInterface32recvRealTimeWaypointPushCallbackEPKN20aubo_robot_namespace10wayPoint_SEPv @269
    _ZN16ServiceInterface32robotServiceGetGlobalBlendRadiusEv @270
    _ZN16ServiceInterface32robotServiceGetRobotCurrentStateERN20aubo_robot_namespace10RobotStateE @271
    _ZN16ServiceInterface32robotServiceGetRobotSafetyConfigERN20aubo_robot_namespace17RobotSafetyConfigE @272
    _ZN16ServiceInterface32robotServiceGetToolDynamicsParamERN20aubo_robot_namespace17ToolDynamicsParamE @273
    _ZN16ServiceInterface32robotServiceOfflineTrackMoveStopEv @274
    _ZN16ServiceInterface32robotServiceSetGlobalBlendRadiusEf @275
    _ZN16ServiceInterface32robotServiceSetMoveRelativeParamERKN20aubo_robot_namespace12MoveRelativeE @276
    _ZN16ServiceInterface32robotServiceSetMoveRelativeParamERKN20aubo_robot_namespace12MoveRelativeERKNS0_33CoordCalibrateByJointAngleAndToolE @277
    _ZN16ServiceInterface32robotServiceSetRobotAtOriginPoseEv @278
    _ZN16ServiceInterface32robotServiceSetRobotSafetyConfigERKN20aubo_robot_namespace17RobotSafetyConfigE @279
    _ZN16ServiceInterface32robotServiceSetToolDigitalIOTypeEN20aubo_robot_namespace17ToolDigitalIOAddrENS0_10ToolIOTypeE @280
    _ZN16ServiceInterface32robotServiceSetToolDynamicsParamERKN20aubo_robot_namespace17ToolDynamicsParamE @281
    _ZN16ServiceInterface33robotServiceClearReducedModeErrorEh @282
    _ZN16ServiceInterface33robotServiceGetConveyorEncoderValERi @283
    _ZN16ServiceInterface33robotServiceGetRobotDiagnosisInfoERN20aubo_robot_namespace14RobotDiagnosisE @284
    _ZN16ServiceInterface33robotServiceGetTrackPlaybackCycleEv @285
    _ZN16ServiceInterface33robotServiceInitGlobalMoveProfileEv @286
    _ZN16ServiceInterface33robotServiceSetEncoderValPerMeterERKj @287
    _ZN16ServiceInterface33robotServiceSetTrackPlaybackCycleEd @288
    _ZN16ServiceInterface34robotServiceGetCurrentWaypointInfoERN20aubo_robot_namespace10wayPoint_SE @289
    _ZN16ServiceInterface34robotServiceGetRobotDevInfoServiceERN20aubo_robot_namespace12RobotDevInfoE @290
    _ZN16ServiceInterface34robotServiceGetToolKinematicsParamERN20aubo_robot_namespace13ToolInEndDescE @291
    _ZN16ServiceInterface34robotServiceSetRobotCollisionClassEi @292
    _ZN16ServiceInterface34robotServiceSetRobotPosData2CanbusEPd @293
    _ZN16ServiceInterface34robotServiceSetRobotPosData2CanbusERKSt6vectorIN20aubo_robot_namespace10wayPoint_SESaIS2_EE @294
    _ZN16ServiceInterface34robotServiceSetStartWindowUpstreamEd @295
    _ZN16ServiceInterface34robotServiceSetToolKinematicsParamERKN20aubo_robot_namespace13ToolInEndDescE @296
    _ZN16ServiceInterface35recvRealTimeJointStatusPushCallbackEPKN20aubo_robot_namespace11JointStatusEiPv @297
    _ZN16ServiceInterface35robotServiceGetGlobalWayPointVectorERSt6vectorIN20aubo_robot_namespace10wayPoint_SESaIS2_EE @298
    _ZN16ServiceInterface35robotServiceGetToolPowerVoltageTypeERN20aubo_robot_namespace13ToolPowerTypeE @299
    _ZN16ServiceInterface35robotServiceOfflineTrackMoveStartupEb @300
    _ZN16ServiceInterface35robotServiceSetArrivalAheadTimeModeEd @301
    _ZN16ServiceInterface35robotServiceSetConveyorEncoderResetEv @302
    _ZN16ServiceInterface35robotServiceSetRealTimeEndSpeedPushEb @303
    _ZN16ServiceInterface35robotServiceSetToolPowerVoltageTypeEN20aubo_robot_namespace13ToolPowerTypeE @304
    _ZN16ServiceInterface36robotServiceClearSystemEmergencyStopEh @305
    _ZN16ServiceInterface36robotServiceGetGlobalMoveJointMaxAccERN20aubo_robot_namespace17JointVelcAccParamE @306
    _ZN16ServiceInterface36robotServiceGetRobotGravityComponentERN20aubo_robot_namespace21RobotGravityComponentE @307
    _ZN16ServiceInterface36robotServiceSetGlobalMoveJointMaxAccERKN20aubo_robot_namespace17JointVelcAccParamE @308
    _ZN16ServiceInterface36robotServiceSetNoneToolDynamicsParamEv @309
    _ZN16ServiceInterface36robotServiceSetRealTimeRoadPointPushEb @310
    _ZN16ServiceInterface36robotServiceSetStartWindowDownstreamEd @311
    _ZN16ServiceInterface36robotServiceSetTeachCoordinateSystemERKN20aubo_robot_namespace33CoordCalibrateByJointAngleAndToolE @312
    _ZN16ServiceInterface36robotServiceUpdateRobotBoardFirmwareEN20aubo_robot_namespace25update_board_firmware_cmdEPKvt @313
    _ZN16ServiceInterface37robotServiceClearGlobalWayPointVectorEv @314
    _ZN16ServiceInterface37robotServiceGetAllToolDigitalIOStatusERSt6vectorIN20aubo_robot_namespace11RobotIoDescESaIS2_EE @315
    _ZN16ServiceInterface37robotServiceGetGlobalMoveJointMaxVelcERN20aubo_robot_namespace17JointVelcAccParamE @316
    _ZN16ServiceInterface37robotServiceGetMacCommunicationStatusERb @317
    _ZN16ServiceInterface37robotServiceGetToolPowerVoltageStatusERd @318
    _ZN16ServiceInterface37robotServiceOfflineTrackWaypointClearEv @319
    _ZN16ServiceInterface37robotServiceRobotSafetyguardResetSuccEh @320
    _ZN16ServiceInterface37robotServiceSetGlobalMoveJointMaxVelcERKN20aubo_robot_namespace17JointVelcAccParamE @321
    _ZN16ServiceInterface38robotServiceGetGlobalCircularLoopTimesEv @322
    _ZN16ServiceInterface38robotServiceGetGlobalMoveEndMaxLineAccERd @323
    _ZN16ServiceInterface38robotServiceGetRobotEthernetDeviceNameERSs @324
    _ZN16ServiceInterface38robotServiceOfflineTrackWaypointAppendEPKc @325
    _ZN16ServiceInterface38robotServiceOfflineTrackWaypointAppendERKSt6vectorIN20aubo_robot_namespace10wayPoint_SESaIS2_EE @326
    _ZN16ServiceInterface38robotServiceSetConveyorTrackDownstreamEd @327
    _ZN16ServiceInterface38robotServiceSetGlobalCircularLoopTimesEi @328
    _ZN16ServiceInterface38robotServiceSetGlobalMoveEndMaxLineAccEd @329
    _ZN16ServiceInterface38robotServiceSetNoneToolKinematicsParamEv @330
    _ZN16ServiceInterface38robotServiceSetRealTimeJointStatusPushEb @331
    _ZN16ServiceInterface39robotMoveLineToTargetPositionByRelativeERKN20aubo_robot_namespace33CoordCalibrateByJointAngleAndToolERKNS0_12MoveRelativeEb @332
    _ZN16ServiceInterface39robotServiceGetGlobalMoveEndMaxAngleAccERd @333
    _ZN16ServiceInterface39robotServiceGetGlobalMoveEndMaxLineVelcERd @334
    _ZN16ServiceInterface39robotServiceSetArrivalAheadDistanceModeEd @335
    _ZN16ServiceInterface39robotServiceSetGlobalMoveEndMaxAngleAccEd @336
    _ZN16ServiceInterface39robotServiceSetGlobalMoveEndMaxLineVelcEd @337
    _ZN16ServiceInterface39robotServiceSetRobotConveyorSystemDelayEd @338
    _ZN16ServiceInterface39robotServiceSetRobotConveyorTrackMaxAccEd @339
    _ZN16ServiceInterface40robotMoveJointToTargetPositionByRelativeERKN20aubo_robot_namespace33CoordCalibrateByJointAngleAndToolERKNS0_12MoveRelativeEb @340
    _ZN16ServiceInterface40robotServiceGetGlobalMoveEndMaxAngleVelcERd @341
    _ZN16ServiceInterface40robotServiceGetJoint6Rotate360EnableFlagERb @342
    _ZN16ServiceInterface40robotServiceSetGlobalMoveEndMaxAngleVelcEd @343
    _ZN16ServiceInterface40robotServiceSetRobotConveyorTrackMaxVelcEd @344
    _ZN16ServiceInterface42robotServiceRegisterRobotEventInfoCallbackEPFvPKN20aubo_robot_namespace14RobotEventInfoEPvES4_ @345
    _ZN16ServiceInterface43getJointAngleByTargetPositionKeepCurrentOriERKN20aubo_robot_namespace33CoordCalibrateByJointAngleAndToolERKNS0_3PosERKNS0_13ToolInEndDescEPd @346
    _ZN16ServiceInterface43robotServiceAppendObject2ConveyorTrackQueueERKN20aubo_robot_namespace3PosERKNS0_3OriEj @347
    _ZN16ServiceInterface43robotServiceGetRobotCollisionCurrentServiceERi @348
    _ZN16ServiceInterface44robotServiceRegisterRealTimeEndSpeedCallbackEPFvdPvES0_ @349
    _ZN16ServiceInterface44robotServiceSetArrivalAheadBlendDistanceModeEd @350
    _ZN16ServiceInterface44robotServiceSetToolPowerTypeAndDigitalIOTypeEN20aubo_robot_namespace13ToolPowerTypeENS0_10ToolIOTypeES2_S2_S2_ @351
    _ZN16ServiceInterface45initCoordCalibrateByJointAngleAndToolDataTypeERN20aubo_robot_namespace33CoordCalibrateByJointAngleAndToolE @352
    _ZN16ServiceInterface45robotServiceRegisterRealTimeRoadPointCallbackEPFvPKN20aubo_robot_namespace10wayPoint_SEPvES4_ @353
    _ZN16ServiceInterface47robotServiceGetBoardFirmwareUpdateResultServiceERb @354
    _ZN16ServiceInterface47robotServiceRegisterRealTimeJointStatusCallbackEPFvPKN20aubo_robot_namespace11JointStatusEiPvES4_ @355
    _ZN16ServiceInterfaceC1Ev @356
    _ZN16ServiceInterfaceC2Ev @357
    _ZN16ServiceInterfaceD1Ev @358
    _ZN16ServiceInterfaceD2Ev @359
    _ZN17ProtoEncodeDecode16getRequest_loginEPPcPiRKSsS4_ @360
    _ZN17ProtoEncodeDecode17getResponse_EventEPcPiRKN20aubo_robot_namespace14RobotEventInfoE @361
    _ZN17ProtoEncodeDecode19getRequest_tcpParamEPPcPiRK13RobotTcpParam @362
    _ZN17ProtoEncodeDecode20getRequest_roadpointEPPcPiRN20aubo_robot_namespace10wayPoint_SE @363
    _ZN17ProtoEncodeDecode20getRequest_robotMoveEPPcPiRK16RobotMoveProfileRKSt6vectorIN20aubo_robot_namespace10wayPoint_SESaIS8_EE @364
    _ZN17ProtoEncodeDecode23getRequest_robotControlEPPcPiN20aubo_robot_namespace19RobotControlCommandE @365
    _ZN17ProtoEncodeDecode23getRequest_robotStartupEPPcPiRK13RobotTcpParamhbbi @366
    _ZN17ProtoEncodeDecode23resolveResponse_DhParamEPKciRN20aubo_robot_namespace9RobotTypeERNS2_11RobotDhParaERi @367
    _ZN17ProtoEncodeDecode23resolveResponse_devInfoEPKciRN20aubo_robot_namespace12RobotDevInfoERi @368
    _ZN17ProtoEncodeDecode23roadPointTypeConversionERKN20aubo_robot_namespace10wayPoint_SERN4aubo5robot6common14ProtoRoadPointE @369
    _ZN17ProtoEncodeDecode23roadPointTypeConversionERKN4aubo5robot6common14ProtoRoadPointERN20aubo_robot_namespace10wayPoint_SE @370
    _ZN17ProtoEncodeDecode23toolParamTypeConversionERKN20aubo_robot_namespace13ToolInEndDescERN4aubo5robot6common9ToolParamE @371
    _ZN17ProtoEncodeDecode23toolParamTypeConversionERKN20aubo_robot_namespace17ToolDynamicsParamERN4aubo5robot6common9ToolParamE @372
    _ZN17ProtoEncodeDecode23toolParamTypeConversionERKN4aubo5robot6common9ToolParamERN20aubo_robot_namespace13ToolInEndDescE @373
    _ZN17ProtoEncodeDecode23toolParamTypeConversionERKN4aubo5robot6common9ToolParamERN20aubo_robot_namespace17ToolDynamicsParamE @374
    _ZN17ProtoEncodeDecode24jointCartUTypeConversionERK12joint_cart_URN4aubo5robot6common12joint_cart_UE @375
    _ZN17ProtoEncodeDecode24jointCartUTypeConversionERKN4aubo5robot6common12joint_cart_UER12joint_cart_U @376
    _ZN17ProtoEncodeDecode24resolveResponse_tcpParamEPKciR13RobotTcpParamRi @377
    _ZN17ProtoEncodeDecode24robotEventTypeConversionERKN20aubo_robot_namespace14RobotEventInfoERN4aubo5robot13communication28ProtoCommunicationRobotEventE @378
    _ZN17ProtoEncodeDecode24robotEventTypeConversionERKN4aubo5robot13communication28ProtoCommunicationRobotEventERN20aubo_robot_namespace14RobotEventInfoE @379
    _ZN17ProtoEncodeDecode25getRequest_robotTeachMoveEPPcPiRK16RobotMoveProfileRK28CoordCalibrateByToolEndPoint @380
    _ZN17ProtoEncodeDecode25getRequest_robotTeachMoveEPPcPiRK16RobotMoveProfileRKN20aubo_robot_namespace33CoordCalibrateByJointAngleAndToolE @381
    _ZN17ProtoEncodeDecode25jointStatusTypeConversionERKN20aubo_robot_namespace11JointStatusERN4aubo5robot6common16ProtoJointStatusE @382
    _ZN17ProtoEncodeDecode25jointStatusTypeConversionERKN4aubo5robot6common16ProtoJointStatusERN20aubo_robot_namespace11JointStatusE @383
    _ZN17ProtoEncodeDecode26RobotDevInfoTypeConversionERKN4aubo5robot13communication15OurRobotDevInfoERN20aubo_robot_namespace12RobotDevInfoE @384
    _ZN17ProtoEncodeDecode26getRequest_firmwareUpgradeEPPcPiiPKvi @385
    _ZN17ProtoEncodeDecode26getRequest_setSafetyConfigEPPcPiRKN20aubo_robot_namespace17RobotSafetyConfigE @386
    _ZN17ProtoEncodeDecode26resolveResponse_jointAngleEPKciRN20aubo_robot_namespace10JointParamERi @387
    _ZN17ProtoEncodeDecode26resolveResponse_robotEventEPKciRN20aubo_robot_namespace14RobotEventInfoE @388
    _ZN17ProtoEncodeDecode26resolveResponse_robotStateEPKciRN20aubo_robot_namespace10RobotStateERi @389
    _ZN17ProtoEncodeDecode27cartesianOriUTypeConversionERK15cartesian_Ori_URN4aubo5robot6common14cartesianOri_UE @390
    _ZN17ProtoEncodeDecode27cartesianOriUTypeConversionERKN4aubo5robot6common14cartesianOri_UER15cartesian_Ori_U @391
    _ZN17ProtoEncodeDecode27getRequest_robotMoveControlEPPcPiN20aubo_robot_namespace23RobotMoveControlCommandE @392
    _ZN17ProtoEncodeDecode27getRequest_safeIoParamAboutEPPcPiRKSt6vectorIiSaIiEE @393
    _ZN17ProtoEncodeDecode27getRequest_setRobotWorkModeEPPcPiN20aubo_robot_namespace13RobotWorkModeE @394
    _ZN17ProtoEncodeDecode27resolveResponse_jointStatusEPKciPN20aubo_robot_namespace11JointStatusEiRi @395
    _ZN17ProtoEncodeDecode27robotTcpParamTypeConversionERK13RobotTcpParamRN4aubo5robot13communication13RobotTcpParamE @396
    _ZN17ProtoEncodeDecode27robotTcpParamTypeConversionERKN4aubo5robot13communication13RobotTcpParamER13RobotTcpParam @397
    _ZN17ProtoEncodeDecode28RobotMovePatamTypeConversionERK16RobotMoveProfileRKSt6vectorIN20aubo_robot_namespace10wayPoint_SESaIS5_EERN4aubo5robot6common9RobotMoveE @398
    _ZN17ProtoEncodeDecode28RobotMovePatamTypeConversionERKN4aubo5robot6common9RobotMoveER16RobotMoveProfileRSt6vectorIN20aubo_robot_namespace10wayPoint_SESaISA_EE @399
    _ZN17ProtoEncodeDecode28getRequest_robotAnalogIODataEPPcPiRKSt6vectorIN20aubo_robot_namespace17RobotAnalogIODescESaIS5_EE @400
    _ZN17ProtoEncodeDecode28getRequest_setRobotCollisionEPPcPii @401
    _ZN17ProtoEncodeDecode28resolveResponse_commonFormatEPKciR33CommunicationCommonResultResponse @402
    _ZN17ProtoEncodeDecode28resolveResponse_safetyConfigEPKciRN20aubo_robot_namespace17RobotSafetyConfigERi @403
    _ZN17ProtoEncodeDecode28resolveResponse_safetyStatusEPKciRN20aubo_robot_namespace16OrpeSafetyStatusERi @404
    _ZN17ProtoEncodeDecode28robotDiagnosisTypeConversionERKN20aubo_robot_namespace14RobotDiagnosisERN4aubo5robot13communication14RobotDiagnosisE @405
    _ZN17ProtoEncodeDecode28robotDiagnosisTypeConversionERKN4aubo5robot13communication14RobotDiagnosisERN20aubo_robot_namespace14RobotDiagnosisE @406
    _ZN17ProtoEncodeDecode29getRequest_intTypeValueVectorEPPcPiRKSt6vectorIiSaIiEE @407
    _ZN17ProtoEncodeDecode29resolveResponse_robotEndSpeedEPKciRd @408
    _ZN17ProtoEncodeDecode29resolveResponse_robotWorkModeEPKciRN20aubo_robot_namespace13RobotWorkModeERi @409
    _ZN17ProtoEncodeDecode30OrpeSafetyStatusTypeConversionERKN20aubo_robot_namespace16OrpeSafetyStatusERN4aubo5robot6common21ProtoOrpeSafetyStatusE @410
    _ZN17ProtoEncodeDecode30OrpeSafetyStatusTypeConversionERKN4aubo5robot6common21ProtoOrpeSafetyStatusERN20aubo_robot_namespace16OrpeSafetyStatusE @411
    _ZN17ProtoEncodeDecode30getRequest_setRobotBoardMaxAccEPPcPii @412
    _ZN17ProtoEncodeDecode30getRequest_setRobotPowerStatusEPPcPib @413
    _ZN17ProtoEncodeDecode30resolveResponse_robotDiagnosisEPKciRN20aubo_robot_namespace14RobotDiagnosisE @414
    _ZN17ProtoEncodeDecode31RobotAnalogIODescTypeConversionERKN20aubo_robot_namespace17RobotAnalogIODescERN4aubo5robot13communication22ProtoRobotAnalogIODescE @415
    _ZN17ProtoEncodeDecode31RobotAnalogIODescTypeConversionERKN4aubo5robot13communication22ProtoRobotAnalogIODescERN20aubo_robot_namespace17RobotAnalogIODescE @416
    _ZN17ProtoEncodeDecode31RobotSafetyConfigTypeConversionERKN20aubo_robot_namespace17RobotSafetyConfigERN4aubo5robot6common22ProtoRobotSafetyConfigE @417
    _ZN17ProtoEncodeDecode31RobotSafetyConfigTypeConversionERKN4aubo5robot6common22ProtoRobotSafetyConfigERN20aubo_robot_namespace17RobotSafetyConfigE @418
    _ZN17ProtoEncodeDecode31getRequest_robotDiagnosisIODataEPPcPiRKSt6vectorIN20aubo_robot_namespace20RobotDiagnosisIODescESaIS5_EE @419
    _ZN17ProtoEncodeDecode31getRequest_setToolDynamicsParamEPPcPiRKN20aubo_robot_namespace17ToolDynamicsParamE @420
    _ZN17ProtoEncodeDecode32getRequest_doubleTypeValueVectorEPPcPiRKSt6vectorIdSaIdEE @421
    _ZN17ProtoEncodeDecode32resolveResponse_collisionCurrentEPKciR21RobotCollisionCurrentRi @422
    _ZN17ProtoEncodeDecode32resolveResponse_gravityComponentEPKciRN20aubo_robot_namespace21RobotGravityComponentERi @423
    _ZN17ProtoEncodeDecode32resolveResponse_isRealRobotExistEPKciRbRi @424
    _ZN17ProtoEncodeDecode33getRequest_setToolKinematicsParamEPPcPiRKN20aubo_robot_namespace13ToolInEndDescE @425
    _ZN17ProtoEncodeDecode33makeProtoCommunicationGeneralDataERN4aubo5robot13communication29ProtoCommunicationGeneralDataERKSt6vectorIiSaIiEERKS5_IbSaIbEE @426
    _ZN17ProtoEncodeDecode33resolveResponse_moveControlResuleEPKciR29call_robot_motion_func_resultRi @427
    _ZN17ProtoEncodeDecode33resolveResponse_robotAnalogIODataEPKciRSt6vectorIN20aubo_robot_namespace17RobotAnalogIODescESaIS4_EERi @428
    _ZN17ProtoEncodeDecode33resolveResponse_robotToolIoStatusEPKciRN20aubo_robot_namespace20RobotToolAllIOStatusERi @429
    _ZN17ProtoEncodeDecode34AuboRobotMoveProfileType2ProtoTypeERK16RobotMoveProfileRN4aubo5robot6common16RobotMoveProfileE @430
    _ZN17ProtoEncodeDecode34ProtoRobotMoveProfileType2AuboTypeERKN4aubo5robot6common16RobotMoveProfileER16RobotMoveProfile @431
    _ZN17ProtoEncodeDecode34RobotDiagnosisIODescTypeConversionERKN20aubo_robot_namespace20RobotDiagnosisIODescERN4aubo5robot13communication25ProtoRobotDiagnosisIODescE @432
    _ZN17ProtoEncodeDecode34RobotDiagnosisIODescTypeConversionERKN4aubo5robot13communication25ProtoRobotDiagnosisIODescERN20aubo_robot_namespace20RobotDiagnosisIODescE @433
    _ZN17ProtoEncodeDecode34getRequest_ConveyorTrackValuePointEPPcPiRKN20aubo_robot_namespace3PosERKNS3_3OriEi @434
    _ZN17ProtoEncodeDecode34getRequest_startupOfflineExcitTrajEPPcPiSsii @435
    _ZN17ProtoEncodeDecode34resolveResponse_ethernetDeviceNameEPKciRSsRi @436
    _ZN17ProtoEncodeDecode34resolveResponse_intTypeValueVectorEPKciRSt6vectorIiSaIiEERi @437
    _ZN17ProtoEncodeDecode34resolveResponse_robotDiagnosisInfoEPKciRN20aubo_robot_namespace14RobotDiagnosisERi @438
    _ZN17ProtoEncodeDecode35robotCollisionCurrentTypeConversionERK21RobotCollisionCurrentRN4aubo5robot13communication21RobotCollisionCurrentE @439
    _ZN17ProtoEncodeDecode35robotCollisionCurrentTypeConversionERKN4aubo5robot13communication21RobotCollisionCurrentER21RobotCollisionCurrent @440
    _ZN17ProtoEncodeDecode35robotGravityComponentTypeConversionERKN20aubo_robot_namespace21RobotGravityComponentERN4aubo5robot13communication21RobotGravityComponentE @441
    _ZN17ProtoEncodeDecode35robotGravityComponentTypeConversionERKN4aubo5robot13communication21RobotGravityComponentERN20aubo_robot_namespace21RobotGravityComponentE @442
    _ZN17ProtoEncodeDecode36getRequest_robotRobotJointOffsetDataEPPcPiRN20aubo_robot_namespace16RobotJointOffsetE @443
    _ZN17ProtoEncodeDecode36resolveProtoCommunicationGeneralDataERKN4aubo5robot13communication29ProtoCommunicationGeneralDataERSt6vectorIiSaIiEERS6_IbSaIbEERi @444
    _ZN17ProtoEncodeDecode36resolveResponse_getToolDynamicsParamEPKciRN20aubo_robot_namespace17ToolDynamicsParamERi @445
    _ZN17ProtoEncodeDecode36resolveResponse_robotDiagnosisIODataEPKciRSt6vectorIN20aubo_robot_namespace20RobotDiagnosisIODescESaIS4_EERi @446
    _ZN17ProtoEncodeDecode37resolveResponse_doubleTypeValueVectorEPKciRSt6vectorIdSaIdEERi @447
    _ZN17ProtoEncodeDecode37resolveResponse_getDynIdentifyResultsEPKciRSt6vectorIiSaIiEERi @448
    _ZN17ProtoEncodeDecode38resolveResponse_getToolKinematicsParamEPKciRN20aubo_robot_namespace13ToolInEndDescERi @449
    _ZN17ProtoEncodeDecode41ProtoCommunicationGeneralDataMessageParseEPKciRN4aubo5robot13communication29ProtoCommunicationGeneralDataE @450
    _ZN17ProtoEncodeDecode45ProtoCommunicationGeneralDataMessageSerializeERKN4aubo5robot13communication29ProtoCommunicationGeneralDataEPPcPi @451
    _ZN17ProtoEncodeDecodeC1Ev @452
    _ZN17ProtoEncodeDecodeC2Ev @453
    _ZN18RobotConveyorTrack12setRobotToolERKN20aubo_robot_namespace13ToolInEndDescE @454
    _ZN18RobotConveyorTrack14setConveyorDirEi @455
    _ZN18RobotConveyorTrack15setConveyorStopEv @456
    _ZN18RobotConveyorTrack15setConveyorVelcERKd @457
    _ZN18RobotConveyorTrack18setConveyorStartupEv @458
    _ZN18RobotConveyorTrack19enableConveyorTrackEv @459
    _ZN18RobotConveyorTrack19setRobotCameraCalibERKN20aubo_robot_namespace13ToolInEndDescE @460
    _ZN18RobotConveyorTrack21getConveyorEncoderValERi @461
    _ZN18RobotConveyorTrack21setEncoderValPerMeterERKj @462
    _ZN18RobotConveyorTrack22setStartWindowUpstreamEd @463
    _ZN18RobotConveyorTrack23setConveyorEncoderResetEv @464
    _ZN18RobotConveyorTrack24setStartWindowDownstreamEd @465
    _ZN18RobotConveyorTrack26setConveyorTrackDownstreamEd @466
    _ZN18RobotConveyorTrack27setRobotConveyorSystemDelayEd @467
    _ZN18RobotConveyorTrack27setRobotConveyorTrackMaxAccEd @468
    _ZN18RobotConveyorTrack28setRobotConveyorTrackMaxVelcEd @469
    _ZN18RobotConveyorTrack31appendObject2ConveyorTrackQueueERKN20aubo_robot_namespace3PosERKNS0_3OriEj @470
    _ZN18RobotConveyorTrackC1EP20RobotControlServices @471
    _ZN18RobotConveyorTrackC2EP20RobotControlServices @472
    _ZN19aubo_robot_logtrace6W_INFOEPKcz @473
    _ZN19aubo_robot_logtrace6W_WARNEPKcz @474
    _ZN19aubo_robot_logtrace7W_DEBUGEPKcz @475
    _ZN19aubo_robot_logtrace7W_ERROREPKcz @476
    _ZN19aubo_robot_logtrace7W_FATALEPKcz @477
    _ZN20CommunicationRequest7destroyEv @478
    _ZN20RobotControlServices12loginServiceEPKciRKSsS3_RN20aubo_robot_namespace9RobotTypeERNS4_11RobotDhParaE @479
    _ZN20RobotControlServices13logoutServiceEv @480
    _ZN20RobotControlServices15responseProcessEiPKci @481
    _ZN20RobotControlServices16collisionRecoverEv @482
    _ZN20RobotControlServices16rootReleaseBrakeEv @483
    _ZN20RobotControlServices16setRobotOrpeStopEh @484
    _ZN20RobotControlServices17setRobotOrpeErrorEPhi @485
    _ZN20RobotControlServices17setRobotOrpePauseEh @486
    _ZN20RobotControlServices18getTcpParamServiceER13RobotTcpParam @487
    _ZN20RobotControlServices18setTcpParamServiceERK13RobotTcpParam @488
    _ZN20RobotControlServices19getIsRealRobotExistERb @489
    _ZN20RobotControlServices19getOrpeSafetyStatusERN20aubo_robot_namespace16OrpeSafetyStatusE @490
    _ZN20RobotControlServices19getRobotJointStatusEPN20aubo_robot_namespace11JointStatusEi @491
    _ZN20RobotControlServices19robotControlServiceEN20aubo_robot_namespace19RobotControlCommandE @492
    _ZN20RobotControlServices19robotStartupServiceERK13RobotTcpParamhbbiRN20aubo_robot_namespace19ROBOT_SERVICE_STATEEb @493
    _ZN20RobotControlServices20getCurrentJointAngleERN20aubo_robot_namespace10JointParamE @494
    _ZN20RobotControlServices20getRobotSafetyConfigERN20aubo_robot_namespace17RobotSafetyConfigE @495
    _ZN20RobotControlServices20robotShutdownServiceEb @496
    _ZN20RobotControlServices20setRobotSafetyConfigERKN20aubo_robot_namespace17RobotSafetyConfigE @497
    _ZN20RobotControlServices21clearReducedModeErrorEh @498
    _ZN20RobotControlServices21getRobotDiagnosisInfoERN20aubo_robot_namespace14RobotDiagnosisE @499
    _ZN20RobotControlServices21robotHandShakeServiceEb @500
    _ZN20RobotControlServices22armPowerControlServiceEb @501
    _ZN20RobotControlServices22getRobotDevInfoServiceERN20aubo_robot_namespace12RobotDevInfoE @502
    _ZN20RobotControlServices23getRobotWorkModeServiceERN20aubo_robot_namespace13RobotWorkModeE @503
    _ZN20RobotControlServices23realTimeEndSpeedServiceER21CommunicationResponse @504
    _ZN20RobotControlServices23robotMoveControlServiceEN21CommunicationMateType24CommunicationCommandTypeE @505
    _ZN20RobotControlServices23sendRequestWaitResponseERK20CommunicationRequestR21CommunicationResponse @506
    _ZN20RobotControlServices23setRealTimeEndSpeedPushEb @507
    _ZN20RobotControlServices23setRobotWorkModeServiceEN20aubo_robot_namespace13RobotWorkModeE @508
    _ZN20RobotControlServices24clearSystemEmergencyStopEh @509
    _ZN20RobotControlServices24getRobotGravityComponentERN20aubo_robot_namespace21RobotGravityComponentE @510
    _ZN20RobotControlServices24safeIoAboutCommunicationEN21CommunicationMateType24CommunicationCommandTypeERKSt6vectorIiSaIiEE @511
    _ZN20RobotControlServices25getToolAllAIStatusServiceERSt6vectorIN20aubo_robot_namespace17RobotAnalogIODescESaIS2_EE @512
    _ZN20RobotControlServices25getToolAllIOStatusServiceERN20aubo_robot_namespace20RobotToolAllIOStatusE @513
    _ZN20RobotControlServices25realTimeJointAngleServiceER21CommunicationResponse @514
    _ZN20RobotControlServices25robotSafetyguardResetSuccEh @515
    _ZN20RobotControlServices25setRealTimeJointAnglePushEb @516
    _ZN20RobotControlServices26getErrCodeByServerResponseEi @517
    _ZN20RobotControlServices26realTimeJointStatusServiceER21CommunicationResponse @518
    _ZN20RobotControlServices26setRealTimeJointStatusPushEb @519
    _ZN20RobotControlServices26setRobotJointOffsetServiceERN20aubo_robot_namespace16RobotJointOffsetE @520
    _ZN20RobotControlServices27getRobotCurrentStateServiceERN20aubo_robot_namespace10RobotStateE @521
    _ZN20RobotControlServices27getToolDynamicsParamServiceERN20aubo_robot_namespace17ToolDynamicsParamE @522
    _ZN20RobotControlServices27setRobotAtOriginPoseServiceEv @523
    _ZN20RobotControlServices27setToolDigitalIOTypeServiceEN20aubo_robot_namespace17ToolDigitalIOAddrENS0_10ToolIOTypeE @524
    _ZN20RobotControlServices27setToolDynamicsParamServiceERKN20aubo_robot_namespace17ToolDynamicsParamE @525
    _ZN20RobotControlServices28getDynIdentifyResultsServiceERSt6vectorIiSaIiEE @526
    _ZN20RobotControlServices28getJoint6Rotate360EnableFlagERb @527
    _ZN20RobotControlServices28setRobotMoveAbnormalStopFlagEb @528
    _ZN20RobotControlServices29getRobotAnalogIOStatusServiceEN21CommunicationMateType24CommunicationCommandTypeEiRd @529
    _ZN20RobotControlServices29realTimeRobotEventInfoServiceER21CommunicationResponse @530
    _ZN20RobotControlServices29setRobotCollisionClassServiceEi @531
    _ZN20RobotControlServices29setToolDigitalIOStatusServiceEN20aubo_robot_namespace17ToolDigitalIOAddrENS0_9IO_STATUSE @532
    _ZN20RobotControlServices30getRobotDigitalIOStatusServiceEN21CommunicationMateType24CommunicationCommandTypeEiRi @533
    _ZN20RobotControlServices30getToolPowerVoltageTypeServiceERN20aubo_robot_namespace13ToolPowerTypeE @534
    _ZN20RobotControlServices30setToolPowerVoltageTypeServiceEN20aubo_robot_namespace13ToolPowerTypeE @535
    _ZN20RobotControlServices30startupOfflineExcitTrajServiceEPKcN20aubo_robot_namespace23Robot_Dyn_identify_trajEi @536
    _ZN20RobotControlServices31getRobotCollisionCurrentServiceER21RobotCollisionCurrent @537
    _ZN20RobotControlServices31updateRobotBoardFirmwareServiceEN20aubo_robot_namespace25update_board_firmware_cmdEPKvt @538
    _ZN20RobotControlServices32getInterfaceBoardAIStatusServiceEiRd @539
    _ZN20RobotControlServices32getInterfaceBoardAOStatusServiceEiRd @540
    _ZN20RobotControlServices32getInterfaceBoardDIStatusServiceEiRN20aubo_robot_namespace9IO_STATUSE @541
    _ZN20RobotControlServices32getInterfaceBoardDOStatusServiceEiRN20aubo_robot_namespace9IO_STATUSE @542
    _ZN20RobotControlServices32getToolAllDigitalIOStatusServiceERSt6vectorIN20aubo_robot_namespace20RobotDiagnosisIODescESaIS2_EE @543
    _ZN20RobotControlServices32getToolPowerVoltageStatusServiceERd @544
    _ZN20RobotControlServices32setInterfaceBoardAOStatusServiceEid @545
    _ZN20RobotControlServices32setInterfaceBoardDOStatusServiceEiN20aubo_robot_namespace9IO_STATUSE @546
    _ZN20RobotControlServices33getRobotEthernetDeviceNameServiceERSs @547
    _ZN20RobotControlServices35getBoardFirmwareUpdateResultServiceERb @548
    _ZN20RobotControlServices35getInterfaceBoardAllAIStatusServiceERSt6vectorIN20aubo_robot_namespace17RobotAnalogIODescESaIS2_EE @549
    _ZN20RobotControlServices35getInterfaceBoardAllAOStatusServiceERSt6vectorIN20aubo_robot_namespace17RobotAnalogIODescESaIS2_EE @550
    _ZN20RobotControlServices35getInterfaceBoardAllDIStatusServiceERSt6vectorIN20aubo_robot_namespace20RobotDiagnosisIODescESaIS2_EE @551
    _ZN20RobotControlServices35getInterfaceBoardAllDOStatusServiceERSt6vectorIN20aubo_robot_namespace20RobotDiagnosisIODescESaIS2_EE @552
    _ZN20RobotControlServices35setRobotMoveAtTrackTargetSignalFlagEb @553
    _ZN20RobotControlServices36requestServiceGetResponseContentModeEN21CommunicationMateType24CommunicationCommandTypeEPviR21CommunicationResponse @554
    _ZN20RobotControlServices37requestServiceOnlyCheckSendResultModeEN21CommunicationMateType24CommunicationCommandTypeEPvi @555
    _ZN20RobotControlServices39setToolPowerTypeAndDigitalIOTypeServiceEN20aubo_robot_namespace13ToolPowerTypeENS0_10ToolIOTypeES2_S2_S2_ @556
    _ZN20RobotControlServices49robotServiceRegisterRobotEventInfoCallbackServiceEPFvPKN20aubo_robot_namespace14RobotEventInfoEPvES4_ @557
    _ZN20RobotControlServices51robotServiceRegisterRealTimeEndSpeedCallbackServiceEPFvdPvES0_ @558
    _ZN20RobotControlServices52robotServiceRegisterRealTimeRoadPointCallbackServiceEPFvPKN20aubo_robot_namespace10wayPoint_SEPvES4_ @559
    _ZN20RobotControlServices54robotServiceRegisterRealTimeJointStatusCallbackServiceEPFvPKN20aubo_robot_namespace11JointStatusEiPvES4_ @560
    _ZN20RobotControlServicesC1Ev @561
    _ZN20RobotControlServicesC2Ev @562
    _ZN20RobotControlServicesD1Ev @563
    _ZN20RobotControlServicesD2Ev @564
    _ZN21CommunicationMateType20getCommandDescByTypeENS_24CommunicationCommandTypeE @565
    _ZN21CommunicationMateType35initCommunicationCommandTypeDescMapEv @566
    _ZN21CommunicationMateType8instanceEv @567
    _ZN21CommunicationMateTypeC1Ev @568
    _ZN21CommunicationMateTypeC2Ev @569
    _ZN24RobotCommunicationClient11setServerIPESs @570
    _ZN24RobotCommunicationClient13setServerPortEi @571
    _ZN24RobotCommunicationClient15eventLoopThreadEPv @572
    _ZN24RobotCommunicationClient16initClassProfileEv @573
    _ZN24RobotCommunicationClient17ROBOT_COMMAND_CRCE @574 DATA
    _ZN24RobotCommunicationClient17ROBOT_COMMAND_ENDE @575 DATA
    _ZN24RobotCommunicationClient17ROBOT_COMMAND_SOFE @576 DATA
    _ZN24RobotCommunicationClient18checkMessageFormatEPKvi @577
    _ZN24RobotCommunicationClient18connectRobotServerEv @578
    _ZN24RobotCommunicationClient20recvRobotMessageHeadEi @579
    _ZN24RobotCommunicationClient21disconnectRobotServerEv @580
    _ZN24RobotCommunicationClient21recvCommunicationDataEiPvj @581
    _ZN24RobotCommunicationClient21recvMessageBaseMethedEiPvji @582
    _ZN24RobotCommunicationClient21sendCommunicationDataEiPKci @583
    _ZN24RobotCommunicationClient23getCurrentConnectStatusEv @584
    _ZN24RobotCommunicationClient26connectCommunicationServerEv @585
    _ZN24RobotCommunicationClient28recvCommunicationPackageLoopEv @586
    _ZN24RobotCommunicationClient29disconnectCommunicationServerEv @587
    _ZN24RobotCommunicationClient29recvRobotCommunicationPackageEiPci @588
    _ZN24RobotCommunicationClient33encodeAndSendCommunicationPackageERK20CommunicationRequest @589
    _ZN24RobotCommunicationClient33encodeAndSendCommunicationPackageEiRK20CommunicationRequest @590
    _ZN24RobotCommunicationClient39makeDisconnectEventCommunicationPackageEPciPi @591
    _ZN24RobotCommunicationClient8recvPeekEiPvj @592
    _ZN24RobotCommunicationClientC1Ev @593
    _ZN24RobotCommunicationClientC2Ev @594
    _ZN24RobotCommunicationClientD1Ev @595
    _ZN24RobotCommunicationClientD2Ev @596
    _ZN4aubo5robot13communication10OriginPose10SharedCtorEv @597
    _ZN4aubo5robot13communication10OriginPose10SharedDtorEv @598
    _ZN4aubo5robot13communication10OriginPose10descriptorEv @599
    _ZN4aubo5robot13communication10OriginPose16default_instanceEv @600
    _ZN4aubo5robot13communication10OriginPose17default_instance_E @601 DATA
    _ZN4aubo5robot13communication10OriginPose21InitAsDefaultInstanceEv @602
    _ZN4aubo5robot13communication10OriginPose22kOriginPoseFieldNumberE @603 DATA
    _ZN4aubo5robot13communication10OriginPose27MergePartialFromCodedStreamEPN6google8protobuf2io16CodedInputStreamE @604
    _ZN4aubo5robot13communication10OriginPose27kOriginPoseStateFieldNumberE @605 DATA
    _ZN4aubo5robot13communication10OriginPose4SwapEPS2_ @606
    _ZN4aubo5robot13communication10OriginPose5ClearEv @607
    _ZN4aubo5robot13communication10OriginPose8CopyFromERKN6google8protobuf7MessageE @608
    _ZN4aubo5robot13communication10OriginPose8CopyFromERKS2_ @609
    _ZN4aubo5robot13communication10OriginPose9MergeFromERKN6google8protobuf7MessageE @610
    _ZN4aubo5robot13communication10OriginPose9MergeFromERKS2_ @611
    _ZN4aubo5robot13communication10OriginPoseC1ERKS2_ @612
    _ZN4aubo5robot13communication10OriginPoseC1Ev @613
    _ZN4aubo5robot13communication10OriginPoseC2ERKS2_ @614
    _ZN4aubo5robot13communication10OriginPoseC2Ev @615
    _ZN4aubo5robot13communication10OriginPoseD0Ev @616
    _ZN4aubo5robot13communication10OriginPoseD1Ev @617
    _ZN4aubo5robot13communication10OriginPoseD2Ev @618
    _ZN4aubo5robot13communication11JointStatus10SharedCtorEv @619
    _ZN4aubo5robot13communication11JointStatus10SharedDtorEv @620
    _ZN4aubo5robot13communication11JointStatus10descriptorEv @621
    _ZN4aubo5robot13communication11JointStatus16default_instanceEv @622
    _ZN4aubo5robot13communication11JointStatus17default_instance_E @623 DATA
    _ZN4aubo5robot13communication11JointStatus21InitAsDefaultInstanceEv @624
    _ZN4aubo5robot13communication11JointStatus21kJointPosJFieldNumberE @625 DATA
    _ZN4aubo5robot13communication11JointStatus23kJointCurVolFieldNumberE @626 DATA
    _ZN4aubo5robot13communication11JointStatus24kJointCurTempFieldNumberE @627 DATA
    _ZN4aubo5robot13communication11JointStatus24kJointTagPosJFieldNumberE @628 DATA
    _ZN4aubo5robot13communication11JointStatus25kJointCurrentIFieldNumberE @629 DATA
    _ZN4aubo5robot13communication11JointStatus25kJointErrorNumFieldNumberE @630 DATA
    _ZN4aubo5robot13communication11JointStatus26kJointSpeedMotoFieldNumberE @631 DATA
    _ZN4aubo5robot13communication11JointStatus27MergePartialFromCodedStreamEPN6google8protobuf2io16CodedInputStreamE @632
    _ZN4aubo5robot13communication11JointStatus28kJointTagCurrentIFieldNumberE @633 DATA
    _ZN4aubo5robot13communication11JointStatus29kJointTagSpeedMotoFieldNumberE @634 DATA
    _ZN4aubo5robot13communication11JointStatus4SwapEPS2_ @635
    _ZN4aubo5robot13communication11JointStatus5ClearEv @636
    _ZN4aubo5robot13communication11JointStatus8CopyFromERKN6google8protobuf7MessageE @637
    _ZN4aubo5robot13communication11JointStatus8CopyFromERKS2_ @638
    _ZN4aubo5robot13communication11JointStatus9MergeFromERKN6google8protobuf7MessageE @639
    _ZN4aubo5robot13communication11JointStatus9MergeFromERKS2_ @640
    _ZN4aubo5robot13communication11JointStatusC1ERKS2_ @641
    _ZN4aubo5robot13communication11JointStatusC1Ev @642
    _ZN4aubo5robot13communication11JointStatusC2ERKS2_ @643
    _ZN4aubo5robot13communication11JointStatusC2Ev @644
    _ZN4aubo5robot13communication11JointStatusD0Ev @645
    _ZN4aubo5robot13communication11JointStatusD1Ev @646
    _ZN4aubo5robot13communication11JointStatusD2Ev @647
    _ZN4aubo5robot13communication12JointVersion10SharedCtorEv @648
    _ZN4aubo5robot13communication12JointVersion10SharedDtorEv @649
    _ZN4aubo5robot13communication12JointVersion10descriptorEv @650
    _ZN4aubo5robot13communication12JointVersion16default_instanceEv @651
    _ZN4aubo5robot13communication12JointVersion17default_instance_E @652 DATA
    _ZN4aubo5robot13communication12JointVersion21InitAsDefaultInstanceEv @653
    _ZN4aubo5robot13communication12JointVersion21kHwVersionFieldNumberE @654 DATA
    _ZN4aubo5robot13communication12JointVersion21kSwVersionFieldNumberE @655 DATA
    _ZN4aubo5robot13communication12JointVersion27MergePartialFromCodedStreamEPN6google8protobuf2io16CodedInputStreamE @656
    _ZN4aubo5robot13communication12JointVersion4SwapEPS2_ @657
    _ZN4aubo5robot13communication12JointVersion5ClearEv @658
    _ZN4aubo5robot13communication12JointVersion8CopyFromERKN6google8protobuf7MessageE @659
    _ZN4aubo5robot13communication12JointVersion8CopyFromERKS2_ @660
    _ZN4aubo5robot13communication12JointVersion9MergeFromERKN6google8protobuf7MessageE @661
    _ZN4aubo5robot13communication12JointVersion9MergeFromERKS2_ @662
    _ZN4aubo5robot13communication12JointVersionC1ERKS2_ @663
    _ZN4aubo5robot13communication12JointVersionC1Ev @664
    _ZN4aubo5robot13communication12JointVersionC2ERKS2_ @665
    _ZN4aubo5robot13communication12JointVersionC2Ev @666
    _ZN4aubo5robot13communication12JointVersionD0Ev @667
    _ZN4aubo5robot13communication12JointVersionD1Ev @668
    _ZN4aubo5robot13communication12JointVersionD2Ev @669
    _ZN4aubo5robot13communication13RobotTcpParam10SharedCtorEv @670
    _ZN4aubo5robot13communication13RobotTcpParam10SharedDtorEv @671
    _ZN4aubo5robot13communication13RobotTcpParam10descriptorEv @672
    _ZN4aubo5robot13communication13RobotTcpParam16default_instanceEv @673
    _ZN4aubo5robot13communication13RobotTcpParam17default_instance_E @674 DATA
    _ZN4aubo5robot13communication13RobotTcpParam21InitAsDefaultInstanceEv @675
    _ZN4aubo5robot13communication13RobotTcpParam23kParamManualFieldNumberE @676 DATA
    _ZN4aubo5robot13communication13RobotTcpParam24kParamAutorunFieldNumberE @677 DATA
    _ZN4aubo5robot13communication13RobotTcpParam27MergePartialFromCodedStreamEPN6google8protobuf2io16CodedInputStreamE @678
    _ZN4aubo5robot13communication13RobotTcpParam4SwapEPS2_ @679
    _ZN4aubo5robot13communication13RobotTcpParam5ClearEv @680
    _ZN4aubo5robot13communication13RobotTcpParam8CopyFromERKN6google8protobuf7MessageE @681
    _ZN4aubo5robot13communication13RobotTcpParam8CopyFromERKS2_ @682
    _ZN4aubo5robot13communication13RobotTcpParam9MergeFromERKN6google8protobuf7MessageE @683
    _ZN4aubo5robot13communication13RobotTcpParam9MergeFromERKS2_ @684
    _ZN4aubo5robot13communication13RobotTcpParamC1ERKS2_ @685
    _ZN4aubo5robot13communication13RobotTcpParamC1Ev @686
    _ZN4aubo5robot13communication13RobotTcpParamC2ERKS2_ @687
    _ZN4aubo5robot13communication13RobotTcpParamC2Ev @688
    _ZN4aubo5robot13communication13RobotTcpParamD0Ev @689
    _ZN4aubo5robot13communication13RobotTcpParamD1Ev @690
    _ZN4aubo5robot13communication13RobotTcpParamD2Ev @691
    _ZN4aubo5robot13communication14RobotDiagnosis10SharedCtorEv @692
    _ZN4aubo5robot13communication14RobotDiagnosis10SharedDtorEv @693
    _ZN4aubo5robot13communication14RobotDiagnosis10descriptorEv @694
    _ZN4aubo5robot13communication14RobotDiagnosis16default_instanceEv @695
    _ZN4aubo5robot13communication14RobotDiagnosis17default_instance_E @696 DATA
    _ZN4aubo5robot13communication14RobotDiagnosis21InitAsDefaultInstanceEv @697
    _ZN4aubo5robot13communication14RobotDiagnosis22kOrpeStatusFieldNumberE @698 DATA
    _ZN4aubo5robot13communication14RobotDiagnosis22kRemoteHaltFieldNumberE @699 DATA
    _ZN4aubo5robot13communication14RobotDiagnosis23kBrakeStuatsFieldNumberE @700 DATA
    _ZN4aubo5robot13communication14RobotDiagnosis23kRobotMaxAccFieldNumberE @701 DATA
    _ZN4aubo5robot13communication14RobotDiagnosis23kToolIoErrorFieldNumberE @702 DATA
    _ZN4aubo5robot13communication14RobotDiagnosis25kRobotEndSpeedFieldNumberE @703 DATA
    _ZN4aubo5robot13communication14RobotDiagnosis25kSoftEmergencyFieldNumberE @704 DATA
    _ZN4aubo5robot13communication14RobotDiagnosis26kArmPowerStatusFieldNumberE @705 DATA
    _ZN4aubo5robot13communication14RobotDiagnosis26kContorllerTempFieldNumberE @706 DATA
    _ZN4aubo5robot13communication14RobotDiagnosis26kEnableReadPoseFieldNumberE @707 DATA
    _ZN4aubo5robot13communication14RobotDiagnosis26kRobotCollisionFieldNumberE @708 DATA
    _ZN4aubo5robot13communication14RobotDiagnosis27MergePartialFromCodedStreamEPN6google8protobuf2io16CodedInputStreamE @709
    _ZN4aubo5robot13communication14RobotDiagnosis27kArmCanbusStatusFieldNumberE @710 DATA
    _ZN4aubo5robot13communication14RobotDiagnosis27kArmPowerCurrentFieldNumberE @711 DATA
    _ZN4aubo5robot13communication14RobotDiagnosis27kArmPowerVoltageFieldNumberE @712 DATA
    _ZN4aubo5robot13communication14RobotDiagnosis27kRemoteEmergencyFieldNumberE @713 DATA
    _ZN4aubo5robot13communication14RobotDiagnosis28kForceControlModeFieldNumberE @714 DATA
    _ZN4aubo5robot13communication14RobotDiagnosis28kJointErrorStatusFieldNumberE @715 DATA
    _ZN4aubo5robot13communication14RobotDiagnosis29kEncoderLinesErrorFieldNumberE @716 DATA
    _ZN4aubo5robot13communication14RobotDiagnosis29kRobotCurrentAlarmFieldNumberE @717 DATA
    _ZN4aubo5robot13communication14RobotDiagnosis30kContorllerHumidityFieldNumberE @718 DATA
    _ZN4aubo5robot13communication14RobotDiagnosis30kEncoderErrorStatusFieldNumberE @719 DATA
    _ZN4aubo5robot13communication14RobotDiagnosis32kJointCollisionDetectFieldNumberE @720 DATA
    _ZN4aubo5robot13communication14RobotDiagnosis32kMacTargetPosDataSizeFieldNumberE @721 DATA
    _ZN4aubo5robot13communication14RobotDiagnosis33kStaticCollisionDetectFieldNumberE @722 DATA
    _ZN4aubo5robot13communication14RobotDiagnosis34kMacTargetPosBufferSizeFieldNumberE @723 DATA
    _ZN4aubo5robot13communication14RobotDiagnosis35kMacDataInterruptWarningFieldNumberE @724 DATA
    _ZN4aubo5robot13communication14RobotDiagnosis36kRobotMountingPoseChangedFieldNumberE @725 DATA
    _ZN4aubo5robot13communication14RobotDiagnosis36kRobotMountingPoseWarningFieldNumberE @726 DATA
    _ZN4aubo5robot13communication14RobotDiagnosis37kSingularityOverSpeedAlarmFieldNumberE @727 DATA
    _ZN4aubo5robot13communication14RobotDiagnosis4SwapEPS2_ @728
    _ZN4aubo5robot13communication14RobotDiagnosis5ClearEv @729
    _ZN4aubo5robot13communication14RobotDiagnosis8CopyFromERKN6google8protobuf7MessageE @730
    _ZN4aubo5robot13communication14RobotDiagnosis8CopyFromERKS2_ @731
    _ZN4aubo5robot13communication14RobotDiagnosis9MergeFromERKN6google8protobuf7MessageE @732
    _ZN4aubo5robot13communication14RobotDiagnosis9MergeFromERKS2_ @733
    _ZN4aubo5robot13communication14RobotDiagnosisC1ERKS2_ @734
    _ZN4aubo5robot13communication14RobotDiagnosisC1Ev @735
    _ZN4aubo5robot13communication14RobotDiagnosisC2ERKS2_ @736
    _ZN4aubo5robot13communication14RobotDiagnosisC2Ev @737
    _ZN4aubo5robot13communication14RobotDiagnosisD0Ev @738
    _ZN4aubo5robot13communication14RobotDiagnosisD1Ev @739
    _ZN4aubo5robot13communication14RobotDiagnosisD2Ev @740
    _ZN4aubo5robot13communication15OurRobotDevInfo10SharedCtorEv @741
    _ZN4aubo5robot13communication15OurRobotDevInfo10SharedDtorEv @742
    _ZN4aubo5robot13communication15OurRobotDevInfo10descriptorEv @743
    _ZN4aubo5robot13communication15OurRobotDevInfo16default_instanceEv @744
    _ZN4aubo5robot13communication15OurRobotDevInfo16kDescFieldNumberE @745 DATA
    _ZN4aubo5robot13communication15OurRobotDevInfo16kTypeFieldNumberE @746 DATA
    _ZN4aubo5robot13communication15OurRobotDevInfo17default_instance_E @747 DATA
    _ZN4aubo5robot13communication15OurRobotDevInfo18kManuIDFieldNumberE @748 DATA
    _ZN4aubo5robot13communication15OurRobotDevInfo20kJointVerFieldNumberE @749 DATA
    _ZN4aubo5robot13communication15OurRobotDevInfo20kRevisionFieldNumberE @750 DATA
    _ZN4aubo5robot13communication15OurRobotDevInfo21InitAsDefaultInstanceEv @751
    _ZN4aubo5robot13communication15OurRobotDevInfo21kJointTypeFieldNumberE @752 DATA
    _ZN4aubo5robot13communication15OurRobotDevInfo26kJointProductIDFieldNumberE @753 DATA
    _ZN4aubo5robot13communication15OurRobotDevInfo27MergePartialFromCodedStreamEPN6google8protobuf2io16CodedInputStreamE @754
    _ZN4aubo5robot13communication15OurRobotDevInfo27kSlaveDevVersionFieldNumberE @755 DATA
    _ZN4aubo5robot13communication15OurRobotDevInfo32kExtendIoBoardVersionFieldNumberE @756 DATA
    _ZN4aubo5robot13communication15OurRobotDevInfo4SwapEPS2_ @757
    _ZN4aubo5robot13communication15OurRobotDevInfo5ClearEv @758
    _ZN4aubo5robot13communication15OurRobotDevInfo8CopyFromERKN6google8protobuf7MessageE @759
    _ZN4aubo5robot13communication15OurRobotDevInfo8CopyFromERKS2_ @760
    _ZN4aubo5robot13communication15OurRobotDevInfo9MergeFromERKN6google8protobuf7MessageE @761
    _ZN4aubo5robot13communication15OurRobotDevInfo9MergeFromERKS2_ @762
    _ZN4aubo5robot13communication15OurRobotDevInfoC1ERKS2_ @763
    _ZN4aubo5robot13communication15OurRobotDevInfoC1Ev @764
    _ZN4aubo5robot13communication15OurRobotDevInfoC2ERKS2_ @765
    _ZN4aubo5robot13communication15OurRobotDevInfoC2Ev @766
    _ZN4aubo5robot13communication15OurRobotDevInfoD0Ev @767
    _ZN4aubo5robot13communication15OurRobotDevInfoD1Ev @768
    _ZN4aubo5robot13communication15OurRobotDevInfoD2Ev @769
    _ZN4aubo5robot13communication15RobotToolConfig10SharedCtorEv @770
    _ZN4aubo5robot13communication15RobotToolConfig10SharedDtorEv @771
    _ZN4aubo5robot13communication15RobotToolConfig10descriptorEv @772
    _ZN4aubo5robot13communication15RobotToolConfig16default_instanceEv @773
    _ZN4aubo5robot13communication15RobotToolConfig17default_instance_E @774 DATA
    _ZN4aubo5robot13communication15RobotToolConfig18kConfigFieldNumberE @775 DATA
    _ZN4aubo5robot13communication15RobotToolConfig21InitAsDefaultInstanceEv @776
    _ZN4aubo5robot13communication15RobotToolConfig27MergePartialFromCodedStreamEPN6google8protobuf2io16CodedInputStreamE @777
    _ZN4aubo5robot13communication15RobotToolConfig4SwapEPS2_ @778
    _ZN4aubo5robot13communication15RobotToolConfig5ClearEv @779
    _ZN4aubo5robot13communication15RobotToolConfig8CopyFromERKN6google8protobuf7MessageE @780
    _ZN4aubo5robot13communication15RobotToolConfig8CopyFromERKS2_ @781
    _ZN4aubo5robot13communication15RobotToolConfig9MergeFromERKN6google8protobuf7MessageE @782
    _ZN4aubo5robot13communication15RobotToolConfig9MergeFromERKS2_ @783
    _ZN4aubo5robot13communication15RobotToolConfigC1ERKS2_ @784
    _ZN4aubo5robot13communication15RobotToolConfigC1Ev @785
    _ZN4aubo5robot13communication15RobotToolConfigC2ERKS2_ @786
    _ZN4aubo5robot13communication15RobotToolConfigC2Ev @787
    _ZN4aubo5robot13communication15RobotToolConfigD0Ev @788
    _ZN4aubo5robot13communication15RobotToolConfigD1Ev @789
    _ZN4aubo5robot13communication15RobotToolConfigD2Ev @790
    _ZN4aubo5robot13communication15RobotToolStatus10SharedCtorEv @791
    _ZN4aubo5robot13communication15RobotToolStatus10SharedDtorEv @792
    _ZN4aubo5robot13communication15RobotToolStatus10descriptorEv @793
    _ZN4aubo5robot13communication15RobotToolStatus16default_instanceEv @794
    _ZN4aubo5robot13communication15RobotToolStatus17default_instance_E @795 DATA
    _ZN4aubo5robot13communication15RobotToolStatus18kAiDataFieldNumberE @796 DATA
    _ZN4aubo5robot13communication15RobotToolStatus18kIoDataFieldNumberE @797 DATA
    _ZN4aubo5robot13communication15RobotToolStatus21InitAsDefaultInstanceEv @798
    _ZN4aubo5robot13communication15RobotToolStatus23kErrorStatusFieldNumberE @799 DATA
    _ZN4aubo5robot13communication15RobotToolStatus25kSystemVoltageFieldNumberE @800 DATA
    _ZN4aubo5robot13communication15RobotToolStatus27MergePartialFromCodedStreamEPN6google8protobuf2io16CodedInputStreamE @801
    _ZN4aubo5robot13communication15RobotToolStatus29kSystemTemperatureFieldNumberE @802 DATA
    _ZN4aubo5robot13communication15RobotToolStatus4SwapEPS2_ @803
    _ZN4aubo5robot13communication15RobotToolStatus5ClearEv @804
    _ZN4aubo5robot13communication15RobotToolStatus8CopyFromERKN6google8protobuf7MessageE @805
    _ZN4aubo5robot13communication15RobotToolStatus8CopyFromERKS2_ @806
    _ZN4aubo5robot13communication15RobotToolStatus9MergeFromERKN6google8protobuf7MessageE @807
    _ZN4aubo5robot13communication15RobotToolStatus9MergeFromERKS2_ @808
    _ZN4aubo5robot13communication15RobotToolStatusC1ERKS2_ @809
    _ZN4aubo5robot13communication15RobotToolStatusC1Ev @810
    _ZN4aubo5robot13communication15RobotToolStatusC2ERKS2_ @811
    _ZN4aubo5robot13communication15RobotToolStatusC2Ev @812
    _ZN4aubo5robot13communication15RobotToolStatusD0Ev @813
    _ZN4aubo5robot13communication15RobotToolStatusD1Ev @814
    _ZN4aubo5robot13communication15RobotToolStatusD2Ev @815
    _ZN4aubo5robot13communication15toolAllIOStatus10SharedCtorEv @816
    _ZN4aubo5robot13communication15toolAllIOStatus10SharedDtorEv @817
    _ZN4aubo5robot13communication15toolAllIOStatus10descriptorEv @818
    _ZN4aubo5robot13communication15toolAllIOStatus16default_instanceEv @819
    _ZN4aubo5robot13communication15toolAllIOStatus17default_instance_E @820 DATA
    _ZN4aubo5robot13communication15toolAllIOStatus18kAiDataFieldNumberE @821 DATA
    _ZN4aubo5robot13communication15toolAllIOStatus21InitAsDefaultInstanceEv @822
    _ZN4aubo5robot13communication15toolAllIOStatus21kPowerTypeFieldNumberE @823 DATA
    _ZN4aubo5robot13communication15toolAllIOStatus23kErrorStatusFieldNumberE @824 DATA
    _ZN4aubo5robot13communication15toolAllIOStatus25kSystemVoltageFieldNumberE @825 DATA
    _ZN4aubo5robot13communication15toolAllIOStatus27MergePartialFromCodedStreamEPN6google8protobuf2io16CodedInputStreamE @826
    _ZN4aubo5robot13communication15toolAllIOStatus27kDigitalIoStatusFieldNumberE @827 DATA
    _ZN4aubo5robot13communication15toolAllIOStatus29kSystemTemperatureFieldNumberE @828 DATA
    _ZN4aubo5robot13communication15toolAllIOStatus4SwapEPS2_ @829
    _ZN4aubo5robot13communication15toolAllIOStatus5ClearEv @830
    _ZN4aubo5robot13communication15toolAllIOStatus8CopyFromERKN6google8protobuf7MessageE @831
    _ZN4aubo5robot13communication15toolAllIOStatus8CopyFromERKS2_ @832
    _ZN4aubo5robot13communication15toolAllIOStatus9MergeFromERKN6google8protobuf7MessageE @833
    _ZN4aubo5robot13communication15toolAllIOStatus9MergeFromERKS2_ @834
    _ZN4aubo5robot13communication15toolAllIOStatusC1ERKS2_ @835
    _ZN4aubo5robot13communication15toolAllIOStatusC1Ev @836
    _ZN4aubo5robot13communication15toolAllIOStatusC2ERKS2_ @837
    _ZN4aubo5robot13communication15toolAllIOStatusC2Ev @838
    _ZN4aubo5robot13communication15toolAllIOStatusD0Ev @839
    _ZN4aubo5robot13communication15toolAllIOStatusD1Ev @840
    _ZN4aubo5robot13communication15toolAllIOStatusD2Ev @841
    _ZN4aubo5robot13communication16OrpeSafetyStatus10SharedCtorEv @842
    _ZN4aubo5robot13communication16OrpeSafetyStatus10SharedDtorEv @843
    _ZN4aubo5robot13communication16OrpeSafetyStatus10descriptorEv @844
    _ZN4aubo5robot13communication16OrpeSafetyStatus16default_instanceEv @845
    _ZN4aubo5robot13communication16OrpeSafetyStatus17default_instance_E @846 DATA
    _ZN4aubo5robot13communication16OrpeSafetyStatus20kOrpeStopFieldNumberE @847 DATA
    _ZN4aubo5robot13communication16OrpeSafetyStatus21InitAsDefaultInstanceEv @848
    _ZN4aubo5robot13communication16OrpeSafetyStatus21kOrpeErrorFieldNumberE @849 DATA
    _ZN4aubo5robot13communication16OrpeSafetyStatus21kOrpePauseFieldNumberE @850 DATA
    _ZN4aubo5robot13communication16OrpeSafetyStatus27MergePartialFromCodedStreamEPN6google8protobuf2io16CodedInputStreamE @851
    _ZN4aubo5robot13communication16OrpeSafetyStatus28kReducedModeErrorFieldNumberE @852 DATA
    _ZN4aubo5robot13communication16OrpeSafetyStatus31kSystemEmergencyStopFieldNumberE @853 DATA
    _ZN4aubo5robot13communication16OrpeSafetyStatus32kSafetyguardResetSuccFieldNumberE @854 DATA
    _ZN4aubo5robot13communication16OrpeSafetyStatus4SwapEPS2_ @855
    _ZN4aubo5robot13communication16OrpeSafetyStatus5ClearEv @856
    _ZN4aubo5robot13communication16OrpeSafetyStatus8CopyFromERKN6google8protobuf7MessageE @857
    _ZN4aubo5robot13communication16OrpeSafetyStatus8CopyFromERKS2_ @858
    _ZN4aubo5robot13communication16OrpeSafetyStatus9MergeFromERKN6google8protobuf7MessageE @859
    _ZN4aubo5robot13communication16OrpeSafetyStatus9MergeFromERKS2_ @860
    _ZN4aubo5robot13communication16OrpeSafetyStatusC1ERKS2_ @861
    _ZN4aubo5robot13communication16OrpeSafetyStatusC1Ev @862
    _ZN4aubo5robot13communication16OrpeSafetyStatusC2ERKS2_ @863
    _ZN4aubo5robot13communication16OrpeSafetyStatusC2Ev @864
    _ZN4aubo5robot13communication16OrpeSafetyStatusD0Ev @865
    _ZN4aubo5robot13communication16OrpeSafetyStatusD1Ev @866
    _ZN4aubo5robot13communication16OrpeSafetyStatusD2Ev @867
    _ZN4aubo5robot13communication17ProtoRequestLogin10SharedCtorEv @868
    _ZN4aubo5robot13communication17ProtoRequestLogin10SharedDtorEv @869
    _ZN4aubo5robot13communication17ProtoRequestLogin10descriptorEv @870
    _ZN4aubo5robot13communication17ProtoRequestLogin16default_instanceEv @871
    _ZN4aubo5robot13communication17ProtoRequestLogin17default_instance_E @872 DATA
    _ZN4aubo5robot13communication17ProtoRequestLogin18kPasswdFieldNumberE @873 DATA
    _ZN4aubo5robot13communication17ProtoRequestLogin20kUserNameFieldNumberE @874 DATA
    _ZN4aubo5robot13communication17ProtoRequestLogin21InitAsDefaultInstanceEv @875
    _ZN4aubo5robot13communication17ProtoRequestLogin27MergePartialFromCodedStreamEPN6google8protobuf2io16CodedInputStreamE @876
    _ZN4aubo5robot13communication17ProtoRequestLogin4SwapEPS2_ @877
    _ZN4aubo5robot13communication17ProtoRequestLogin5ClearEv @878
    _ZN4aubo5robot13communication17ProtoRequestLogin8CopyFromERKN6google8protobuf7MessageE @879
    _ZN4aubo5robot13communication17ProtoRequestLogin8CopyFromERKS2_ @880
    _ZN4aubo5robot13communication17ProtoRequestLogin9MergeFromERKN6google8protobuf7MessageE @881
    _ZN4aubo5robot13communication17ProtoRequestLogin9MergeFromERKS2_ @882
    _ZN4aubo5robot13communication17ProtoRequestLoginC1ERKS2_ @883
    _ZN4aubo5robot13communication17ProtoRequestLoginC1Ev @884
    _ZN4aubo5robot13communication17ProtoRequestLoginC2ERKS2_ @885
    _ZN4aubo5robot13communication17ProtoRequestLoginC2Ev @886
    _ZN4aubo5robot13communication17ProtoRequestLoginD0Ev @887
    _ZN4aubo5robot13communication17ProtoRequestLoginD1Ev @888
    _ZN4aubo5robot13communication17ProtoRequestLoginD2Ev @889
    _ZN4aubo5robot13communication17RobotExtDiagnosis10SharedCtorEv @890
    _ZN4aubo5robot13communication17RobotExtDiagnosis10SharedDtorEv @891
    _ZN4aubo5robot13communication17RobotExtDiagnosis10descriptorEv @892
    _ZN4aubo5robot13communication17RobotExtDiagnosis16default_instanceEv @893
    _ZN4aubo5robot13communication17RobotExtDiagnosis17default_instance_E @894 DATA
    _ZN4aubo5robot13communication17RobotExtDiagnosis21InitAsDefaultInstanceEv @895
    _ZN4aubo5robot13communication17RobotExtDiagnosis21kTargetPosFieldNumberE @896 DATA
    _ZN4aubo5robot13communication17RobotExtDiagnosis22kRobotStateFieldNumberE @897 DATA
    _ZN4aubo5robot13communication17RobotExtDiagnosis23kRobotStatusFieldNumberE @898 DATA
    _ZN4aubo5robot13communication17RobotExtDiagnosis26kTheoreticalAccFieldNumberE @899 DATA
    _ZN4aubo5robot13communication17RobotExtDiagnosis27MergePartialFromCodedStreamEPN6google8protobuf2io16CodedInputStreamE @900
    _ZN4aubo5robot13communication17RobotExtDiagnosis28kTheoreticalSpeedFieldNumberE @901 DATA
    _ZN4aubo5robot13communication17RobotExtDiagnosis30kTheoreticalCurrentFieldNumberE @902 DATA
    _ZN4aubo5robot13communication17RobotExtDiagnosis4SwapEPS2_ @903
    _ZN4aubo5robot13communication17RobotExtDiagnosis5ClearEv @904
    _ZN4aubo5robot13communication17RobotExtDiagnosis8CopyFromERKN6google8protobuf7MessageE @905
    _ZN4aubo5robot13communication17RobotExtDiagnosis8CopyFromERKS2_ @906
    _ZN4aubo5robot13communication17RobotExtDiagnosis9MergeFromERKN6google8protobuf7MessageE @907
    _ZN4aubo5robot13communication17RobotExtDiagnosis9MergeFromERKS2_ @908
    _ZN4aubo5robot13communication17RobotExtDiagnosisC1ERKS2_ @909
    _ZN4aubo5robot13communication17RobotExtDiagnosisC1Ev @910
    _ZN4aubo5robot13communication17RobotExtDiagnosisC2ERKS2_ @911
    _ZN4aubo5robot13communication17RobotExtDiagnosisC2Ev @912
    _ZN4aubo5robot13communication17RobotExtDiagnosisD0Ev @913
    _ZN4aubo5robot13communication17RobotExtDiagnosisD1Ev @914
    _ZN4aubo5robot13communication17RobotExtDiagnosisD2Ev @915
    _ZN4aubo5robot13communication17RobotSafetyConfig10SharedCtorEv @916
    _ZN4aubo5robot13communication17RobotSafetyConfig10SharedDtorEv @917
    _ZN4aubo5robot13communication17RobotSafetyConfig10descriptorEv @918
    _ZN4aubo5robot13communication17RobotSafetyConfig16default_instanceEv @919
    _ZN4aubo5robot13communication17RobotSafetyConfig17default_instance_E @920 DATA
    _ZN4aubo5robot13communication17RobotSafetyConfig21InitAsDefaultInstanceEv @921
    _ZN4aubo5robot13communication17RobotSafetyConfig27MergePartialFromCodedStreamEPN6google8protobuf2io16CodedInputStreamE @922
    _ZN4aubo5robot13communication17RobotSafetyConfig35kRobotReducedConfigPowerFieldNumberE @923 DATA
    _ZN4aubo5robot13communication17RobotSafetyConfig37kRobotSafeguradResetConfigFieldNumberE @924 DATA
    _ZN4aubo5robot13communication17RobotSafetyConfig38kRobotOperationalModeConfigFieldNumberE @925 DATA
    _ZN4aubo5robot13communication17RobotSafetyConfig38kRobotReducedConfigMomentumFieldNumberE @926 DATA
    _ZN4aubo5robot13communication17RobotSafetyConfig38kRobotReducedConfigTcpForceFieldNumberE @927 DATA
    _ZN4aubo5robot13communication17RobotSafetyConfig38kRobotReducedConfigTcpSpeedFieldNumberE @928 DATA
    _ZN4aubo5robot13communication17RobotSafetyConfig40kRobotReducedConfigJointSpeedFieldNumberE @929 DATA
    _ZN4aubo5robot13communication17RobotSafetyConfig4SwapEPS2_ @930
    _ZN4aubo5robot13communication17RobotSafetyConfig5ClearEv @931
    _ZN4aubo5robot13communication17RobotSafetyConfig8CopyFromERKN6google8protobuf7MessageE @932
    _ZN4aubo5robot13communication17RobotSafetyConfig8CopyFromERKS2_ @933
    _ZN4aubo5robot13communication17RobotSafetyConfig9MergeFromERKN6google8protobuf7MessageE @934
    _ZN4aubo5robot13communication17RobotSafetyConfig9MergeFromERKS2_ @935
    _ZN4aubo5robot13communication17RobotSafetyConfigC1ERKS2_ @936
    _ZN4aubo5robot13communication17RobotSafetyConfigC1Ev @937
    _ZN4aubo5robot13communication17RobotSafetyConfigC2ERKS2_ @938
    _ZN4aubo5robot13communication17RobotSafetyConfigC2Ev @939
    _ZN4aubo5robot13communication17RobotSafetyConfigD0Ev @940
    _ZN4aubo5robot13communication17RobotSafetyConfigD1Ev @941
    _ZN4aubo5robot13communication17RobotSafetyConfigD2Ev @942
    _ZN4aubo5robot13communication17TagIoType_IsValidEi @943
    _ZN4aubo5robot13communication17ToolDigitalStatus10SharedCtorEv @944
    _ZN4aubo5robot13communication17ToolDigitalStatus10SharedDtorEv @945
    _ZN4aubo5robot13communication17ToolDigitalStatus10descriptorEv @946
    _ZN4aubo5robot13communication17ToolDigitalStatus16default_instanceEv @947
    _ZN4aubo5robot13communication17ToolDigitalStatus17default_instance_E @948 DATA
    _ZN4aubo5robot13communication17ToolDigitalStatus18kIoDataFieldNumberE @949 DATA
    _ZN4aubo5robot13communication17ToolDigitalStatus18kIoTypeFieldNumberE @950 DATA
    _ZN4aubo5robot13communication17ToolDigitalStatus21InitAsDefaultInstanceEv @951
    _ZN4aubo5robot13communication17ToolDigitalStatus27MergePartialFromCodedStreamEPN6google8protobuf2io16CodedInputStreamE @952
    _ZN4aubo5robot13communication17ToolDigitalStatus4SwapEPS2_ @953
    _ZN4aubo5robot13communication17ToolDigitalStatus5ClearEv @954
    _ZN4aubo5robot13communication17ToolDigitalStatus8CopyFromERKN6google8protobuf7MessageE @955
    _ZN4aubo5robot13communication17ToolDigitalStatus8CopyFromERKS2_ @956
    _ZN4aubo5robot13communication17ToolDigitalStatus9MergeFromERKN6google8protobuf7MessageE @957
    _ZN4aubo5robot13communication17ToolDigitalStatus9MergeFromERKS2_ @958
    _ZN4aubo5robot13communication17ToolDigitalStatusC1ERKS2_ @959
    _ZN4aubo5robot13communication17ToolDigitalStatusC1Ev @960
    _ZN4aubo5robot13communication17ToolDigitalStatusC2ERKS2_ @961
    _ZN4aubo5robot13communication17ToolDigitalStatusC2Ev @962
    _ZN4aubo5robot13communication17ToolDigitalStatusD0Ev @963
    _ZN4aubo5robot13communication17ToolDigitalStatusD1Ev @964
    _ZN4aubo5robot13communication17ToolDigitalStatusD2Ev @965
    _ZN4aubo5robot13communication18ModbusMode_IsValidEi @966
    _ZN4aubo5robot13communication19InterfaceBoardError10SharedCtorEv @967
    _ZN4aubo5robot13communication19InterfaceBoardError10SharedDtorEv @968
    _ZN4aubo5robot13communication19InterfaceBoardError10descriptorEv @969
    _ZN4aubo5robot13communication19InterfaceBoardError16default_instanceEv @970
    _ZN4aubo5robot13communication19InterfaceBoardError17default_instance_E @971 DATA
    _ZN4aubo5robot13communication19InterfaceBoardError21InitAsDefaultInstanceEv @972
    _ZN4aubo5robot13communication19InterfaceBoardError22kBoardErrorFieldNumberE @973 DATA
    _ZN4aubo5robot13communication19InterfaceBoardError27MergePartialFromCodedStreamEPN6google8protobuf2io16CodedInputStreamE @974
    _ZN4aubo5robot13communication19InterfaceBoardError4SwapEPS2_ @975
    _ZN4aubo5robot13communication19InterfaceBoardError5ClearEv @976
    _ZN4aubo5robot13communication19InterfaceBoardError8CopyFromERKN6google8protobuf7MessageE @977
    _ZN4aubo5robot13communication19InterfaceBoardError8CopyFromERKS2_ @978
    _ZN4aubo5robot13communication19InterfaceBoardError9MergeFromERKN6google8protobuf7MessageE @979
    _ZN4aubo5robot13communication19InterfaceBoardError9MergeFromERKS2_ @980
    _ZN4aubo5robot13communication19InterfaceBoardErrorC1ERKS2_ @981
    _ZN4aubo5robot13communication19InterfaceBoardErrorC1Ev @982
    _ZN4aubo5robot13communication19InterfaceBoardErrorC2ERKS2_ @983
    _ZN4aubo5robot13communication19InterfaceBoardErrorC2Ev @984
    _ZN4aubo5robot13communication19InterfaceBoardErrorD0Ev @985
    _ZN4aubo5robot13communication19InterfaceBoardErrorD1Ev @986
    _ZN4aubo5robot13communication19InterfaceBoardErrorD2Ev @987
    _ZN4aubo5robot13communication20TagIoType_descriptorEv @988
    _ZN4aubo5robot13communication21ModbusMode_descriptorEv @989
    _ZN4aubo5robot13communication21RobotCollisionCurrent10SharedCtorEv @990
    _ZN4aubo5robot13communication21RobotCollisionCurrent10SharedDtorEv @991
    _ZN4aubo5robot13communication21RobotCollisionCurrent10descriptorEv @992
    _ZN4aubo5robot13communication21RobotCollisionCurrent16default_instanceEv @993
    _ZN4aubo5robot13communication21RobotCollisionCurrent17default_instance_E @994 DATA
    _ZN4aubo5robot13communication21RobotCollisionCurrent21InitAsDefaultInstanceEv @995
    _ZN4aubo5robot13communication21RobotCollisionCurrent26kCollisionClassFieldNumberE @996 DATA
    _ZN4aubo5robot13communication21RobotCollisionCurrent27MergePartialFromCodedStreamEPN6google8protobuf2io16CodedInputStreamE @997
    _ZN4aubo5robot13communication21RobotCollisionCurrent33kJointCollisionCurrentFieldNumberE @998 DATA
    _ZN4aubo5robot13communication21RobotCollisionCurrent4SwapEPS2_ @999
    _ZN4aubo5robot13communication21RobotCollisionCurrent5ClearEv @1000
    _ZN4aubo5robot13communication21RobotCollisionCurrent8CopyFromERKN6google8protobuf7MessageE @1001
    _ZN4aubo5robot13communication21RobotCollisionCurrent8CopyFromERKS2_ @1002
    _ZN4aubo5robot13communication21RobotCollisionCurrent9MergeFromERKN6google8protobuf7MessageE @1003
    _ZN4aubo5robot13communication21RobotCollisionCurrent9MergeFromERKS2_ @1004
    _ZN4aubo5robot13communication21RobotCollisionCurrentC1ERKS2_ @1005
    _ZN4aubo5robot13communication21RobotCollisionCurrentC1Ev @1006
    _ZN4aubo5robot13communication21RobotCollisionCurrentC2ERKS2_ @1007
    _ZN4aubo5robot13communication21RobotCollisionCurrentC2Ev @1008
    _ZN4aubo5robot13communication21RobotCollisionCurrentD0Ev @1009
    _ZN4aubo5robot13communication21RobotCollisionCurrentD1Ev @1010
    _ZN4aubo5robot13communication21RobotCollisionCurrentD2Ev @1011
    _ZN4aubo5robot13communication21RobotGravityComponent10SharedCtorEv @1012
    _ZN4aubo5robot13communication21RobotGravityComponent10SharedDtorEv @1013
    _ZN4aubo5robot13communication21RobotGravityComponent10descriptorEv @1014
    _ZN4aubo5robot13communication21RobotGravityComponent13kXFieldNumberE @1015 DATA
    _ZN4aubo5robot13communication21RobotGravityComponent13kYFieldNumberE @1016 DATA
    _ZN4aubo5robot13communication21RobotGravityComponent13kZFieldNumberE @1017 DATA
    _ZN4aubo5robot13communication21RobotGravityComponent16default_instanceEv @1018
    _ZN4aubo5robot13communication21RobotGravityComponent17default_instance_E @1019 DATA
    _ZN4aubo5robot13communication21RobotGravityComponent21InitAsDefaultInstanceEv @1020
    _ZN4aubo5robot13communication21RobotGravityComponent27MergePartialFromCodedStreamEPN6google8protobuf2io16CodedInputStreamE @1021
    _ZN4aubo5robot13communication21RobotGravityComponent4SwapEPS2_ @1022
    _ZN4aubo5robot13communication21RobotGravityComponent5ClearEv @1023
    _ZN4aubo5robot13communication21RobotGravityComponent8CopyFromERKN6google8protobuf7MessageE @1024
    _ZN4aubo5robot13communication21RobotGravityComponent8CopyFromERKS2_ @1025
    _ZN4aubo5robot13communication21RobotGravityComponent9MergeFromERKN6google8protobuf7MessageE @1026
    _ZN4aubo5robot13communication21RobotGravityComponent9MergeFromERKS2_ @1027
    _ZN4aubo5robot13communication21RobotGravityComponentC1ERKS2_ @1028
    _ZN4aubo5robot13communication21RobotGravityComponentC1Ev @1029
    _ZN4aubo5robot13communication21RobotGravityComponentC2ERKS2_ @1030
    _ZN4aubo5robot13communication21RobotGravityComponentC2Ev @1031
    _ZN4aubo5robot13communication21RobotGravityComponentD0Ev @1032
    _ZN4aubo5robot13communication21RobotGravityComponentD1Ev @1033
    _ZN4aubo5robot13communication21RobotGravityComponentD2Ev @1034
    _ZN4aubo5robot13communication22ProtoRobotAnalogIODesc10SharedCtorEv @1035
    _ZN4aubo5robot13communication22ProtoRobotAnalogIODesc10SharedDtorEv @1036
    _ZN4aubo5robot13communication22ProtoRobotAnalogIODesc10descriptorEv @1037
    _ZN4aubo5robot13communication22ProtoRobotAnalogIODesc16default_instanceEv @1038
    _ZN4aubo5robot13communication22ProtoRobotAnalogIODesc16kAddrFieldNumberE @1039 DATA
    _ZN4aubo5robot13communication22ProtoRobotAnalogIODesc16kTypeFieldNumberE @1040 DATA
    _ZN4aubo5robot13communication22ProtoRobotAnalogIODesc17default_instance_E @1041 DATA
    _ZN4aubo5robot13communication22ProtoRobotAnalogIODesc17kValueFieldNumberE @1042 DATA
    _ZN4aubo5robot13communication22ProtoRobotAnalogIODesc21InitAsDefaultInstanceEv @1043
    _ZN4aubo5robot13communication22ProtoRobotAnalogIODesc27MergePartialFromCodedStreamEPN6google8protobuf2io16CodedInputStreamE @1044
    _ZN4aubo5robot13communication22ProtoRobotAnalogIODesc4SwapEPS2_ @1045
    _ZN4aubo5robot13communication22ProtoRobotAnalogIODesc5ClearEv @1046
    _ZN4aubo5robot13communication22ProtoRobotAnalogIODesc8CopyFromERKN6google8protobuf7MessageE @1047
    _ZN4aubo5robot13communication22ProtoRobotAnalogIODesc8CopyFromERKS2_ @1048
    _ZN4aubo5robot13communication22ProtoRobotAnalogIODesc9MergeFromERKN6google8protobuf7MessageE @1049
    _ZN4aubo5robot13communication22ProtoRobotAnalogIODesc9MergeFromERKS2_ @1050
    _ZN4aubo5robot13communication22ProtoRobotAnalogIODescC1ERKS2_ @1051
    _ZN4aubo5robot13communication22ProtoRobotAnalogIODescC1Ev @1052
    _ZN4aubo5robot13communication22ProtoRobotAnalogIODescC2ERKS2_ @1053
    _ZN4aubo5robot13communication22ProtoRobotAnalogIODescC2Ev @1054
    _ZN4aubo5robot13communication22ProtoRobotAnalogIODescD0Ev @1055
    _ZN4aubo5robot13communication22ProtoRobotAnalogIODescD1Ev @1056
    _ZN4aubo5robot13communication22ProtoRobotAnalogIODescD2Ev @1057
    _ZN4aubo5robot13communication24ProtoRobotCommonResponse10SharedCtorEv @1058
    _ZN4aubo5robot13communication24ProtoRobotCommonResponse10SharedDtorEv @1059
    _ZN4aubo5robot13communication24ProtoRobotCommonResponse10descriptorEv @1060
    _ZN4aubo5robot13communication24ProtoRobotCommonResponse16default_instanceEv @1061
    _ZN4aubo5robot13communication24ProtoRobotCommonResponse17default_instance_E @1062 DATA
    _ZN4aubo5robot13communication24ProtoRobotCommonResponse20kErrorMsgFieldNumberE @1063 DATA
    _ZN4aubo5robot13communication24ProtoRobotCommonResponse21InitAsDefaultInstanceEv @1064
    _ZN4aubo5robot13communication24ProtoRobotCommonResponse21kErrorCodeFieldNumberE @1065 DATA
    _ZN4aubo5robot13communication24ProtoRobotCommonResponse27MergePartialFromCodedStreamEPN6google8protobuf2io16CodedInputStreamE @1066
    _ZN4aubo5robot13communication24ProtoRobotCommonResponse4SwapEPS2_ @1067
    _ZN4aubo5robot13communication24ProtoRobotCommonResponse5ClearEv @1068
    _ZN4aubo5robot13communication24ProtoRobotCommonResponse8CopyFromERKN6google8protobuf7MessageE @1069
    _ZN4aubo5robot13communication24ProtoRobotCommonResponse8CopyFromERKS2_ @1070
    _ZN4aubo5robot13communication24ProtoRobotCommonResponse9MergeFromERKN6google8protobuf7MessageE @1071
    _ZN4aubo5robot13communication24ProtoRobotCommonResponse9MergeFromERKS2_ @1072
    _ZN4aubo5robot13communication24ProtoRobotCommonResponseC1ERKS2_ @1073
    _ZN4aubo5robot13communication24ProtoRobotCommonResponseC1Ev @1074
    _ZN4aubo5robot13communication24ProtoRobotCommonResponseC2ERKS2_ @1075
    _ZN4aubo5robot13communication24ProtoRobotCommonResponseC2Ev @1076
    _ZN4aubo5robot13communication24ProtoRobotCommonResponseD0Ev @1077
    _ZN4aubo5robot13communication24ProtoRobotCommonResponseD1Ev @1078
    _ZN4aubo5robot13communication24ProtoRobotCommonResponseD2Ev @1079
    _ZN4aubo5robot13communication25ProtoRobotDiagnosisIODesc10SharedCtorEv @1080
    _ZN4aubo5robot13communication25ProtoRobotDiagnosisIODesc10SharedDtorEv @1081
    _ZN4aubo5robot13communication25ProtoRobotDiagnosisIODesc10descriptorEv @1082
    _ZN4aubo5robot13communication25ProtoRobotDiagnosisIODesc16default_instanceEv @1083
    _ZN4aubo5robot13communication25ProtoRobotDiagnosisIODesc16kAddrFieldNumberE @1084 DATA
    _ZN4aubo5robot13communication25ProtoRobotDiagnosisIODesc16kTypeFieldNumberE @1085 DATA
    _ZN4aubo5robot13communication25ProtoRobotDiagnosisIODesc17default_instance_E @1086 DATA
    _ZN4aubo5robot13communication25ProtoRobotDiagnosisIODesc17kValueFieldNumberE @1087 DATA
    _ZN4aubo5robot13communication25ProtoRobotDiagnosisIODesc21InitAsDefaultInstanceEv @1088
    _ZN4aubo5robot13communication25ProtoRobotDiagnosisIODesc27MergePartialFromCodedStreamEPN6google8protobuf2io16CodedInputStreamE @1089
    _ZN4aubo5robot13communication25ProtoRobotDiagnosisIODesc4SwapEPS2_ @1090
    _ZN4aubo5robot13communication25ProtoRobotDiagnosisIODesc5ClearEv @1091
    _ZN4aubo5robot13communication25ProtoRobotDiagnosisIODesc8CopyFromERKN6google8protobuf7MessageE @1092
    _ZN4aubo5robot13communication25ProtoRobotDiagnosisIODesc8CopyFromERKS2_ @1093
    _ZN4aubo5robot13communication25ProtoRobotDiagnosisIODesc9MergeFromERKN6google8protobuf7MessageE @1094
    _ZN4aubo5robot13communication25ProtoRobotDiagnosisIODesc9MergeFromERKS2_ @1095
    _ZN4aubo5robot13communication25ProtoRobotDiagnosisIODescC1ERKS2_ @1096
    _ZN4aubo5robot13communication25ProtoRobotDiagnosisIODescC1Ev @1097
    _ZN4aubo5robot13communication25ProtoRobotDiagnosisIODescC2ERKS2_ @1098
    _ZN4aubo5robot13communication25ProtoRobotDiagnosisIODescC2Ev @1099
    _ZN4aubo5robot13communication25ProtoRobotDiagnosisIODescD0Ev @1100
    _ZN4aubo5robot13communication25ProtoRobotDiagnosisIODescD1Ev @1101
    _ZN4aubo5robot13communication25ProtoRobotDiagnosisIODescD2Ev @1102
    _ZN4aubo5robot13communication27ProtoCommunicationIntVector10SharedCtorEv @1103
    _ZN4aubo5robot13communication27ProtoCommunicationIntVector10SharedDtorEv @1104
    _ZN4aubo5robot13communication27ProtoCommunicationIntVector10descriptorEv @1105
    _ZN4aubo5robot13communication27ProtoCommunicationIntVector15kNumFieldNumberE @1106 DATA
    _ZN4aubo5robot13communication27ProtoCommunicationIntVector16default_instanceEv @1107
    _ZN4aubo5robot13communication27ProtoCommunicationIntVector17default_instance_E @1108 DATA
    _ZN4aubo5robot13communication27ProtoCommunicationIntVector17kValueFieldNumberE @1109 DATA
    _ZN4aubo5robot13communication27ProtoCommunicationIntVector21InitAsDefaultInstanceEv @1110
    _ZN4aubo5robot13communication27ProtoCommunicationIntVector27MergePartialFromCodedStreamEPN6google8protobuf2io16CodedInputStreamE @1111
    _ZN4aubo5robot13communication27ProtoCommunicationIntVector4SwapEPS2_ @1112
    _ZN4aubo5robot13communication27ProtoCommunicationIntVector5ClearEv @1113
    _ZN4aubo5robot13communication27ProtoCommunicationIntVector8CopyFromERKN6google8protobuf7MessageE @1114
    _ZN4aubo5robot13communication27ProtoCommunicationIntVector8CopyFromERKS2_ @1115
    _ZN4aubo5robot13communication27ProtoCommunicationIntVector9MergeFromERKN6google8protobuf7MessageE @1116
    _ZN4aubo5robot13communication27ProtoCommunicationIntVector9MergeFromERKS2_ @1117
    _ZN4aubo5robot13communication27ProtoCommunicationIntVectorC1ERKS2_ @1118
    _ZN4aubo5robot13communication27ProtoCommunicationIntVectorC1Ev @1119
    _ZN4aubo5robot13communication27ProtoCommunicationIntVectorC2ERKS2_ @1120
    _ZN4aubo5robot13communication27ProtoCommunicationIntVectorC2Ev @1121
    _ZN4aubo5robot13communication27ProtoCommunicationIntVectorD0Ev @1122
    _ZN4aubo5robot13communication27ProtoCommunicationIntVectorD1Ev @1123
    _ZN4aubo5robot13communication27ProtoCommunicationIntVectorD2Ev @1124
    _ZN4aubo5robot13communication27protoSafeCommunicationParam10SharedCtorEv @1125
    _ZN4aubo5robot13communication27protoSafeCommunicationParam10SharedDtorEv @1126
    _ZN4aubo5robot13communication27protoSafeCommunicationParam10descriptorEv @1127
    _ZN4aubo5robot13communication27protoSafeCommunicationParam16default_instanceEv @1128
    _ZN4aubo5robot13communication27protoSafeCommunicationParam17default_instance_E @1129 DATA
    _ZN4aubo5robot13communication27protoSafeCommunicationParam17kParamFieldNumberE @1130 DATA
    _ZN4aubo5robot13communication27protoSafeCommunicationParam21InitAsDefaultInstanceEv @1131
    _ZN4aubo5robot13communication27protoSafeCommunicationParam25kParamReservedFieldNumberE @1132 DATA
    _ZN4aubo5robot13communication27protoSafeCommunicationParam27MergePartialFromCodedStreamEPN6google8protobuf2io16CodedInputStreamE @1133
    _ZN4aubo5robot13communication27protoSafeCommunicationParam4SwapEPS2_ @1134
    _ZN4aubo5robot13communication27protoSafeCommunicationParam5ClearEv @1135
    _ZN4aubo5robot13communication27protoSafeCommunicationParam8CopyFromERKN6google8protobuf7MessageE @1136
    _ZN4aubo5robot13communication27protoSafeCommunicationParam8CopyFromERKS2_ @1137
    _ZN4aubo5robot13communication27protoSafeCommunicationParam9MergeFromERKN6google8protobuf7MessageE @1138
    _ZN4aubo5robot13communication27protoSafeCommunicationParam9MergeFromERKS2_ @1139
    _ZN4aubo5robot13communication27protoSafeCommunicationParamC1ERKS2_ @1140
    _ZN4aubo5robot13communication27protoSafeCommunicationParamC1Ev @1141
    _ZN4aubo5robot13communication27protoSafeCommunicationParamC2ERKS2_ @1142
    _ZN4aubo5robot13communication27protoSafeCommunicationParamC2Ev @1143
    _ZN4aubo5robot13communication27protoSafeCommunicationParamD0Ev @1144
    _ZN4aubo5robot13communication27protoSafeCommunicationParamD1Ev @1145
    _ZN4aubo5robot13communication27protoSafeCommunicationParamD2Ev @1146
    _ZN4aubo5robot13communication28ProtoCommunicationRobotEvent10SharedCtorEv @1147
    _ZN4aubo5robot13communication28ProtoCommunicationRobotEvent10SharedDtorEv @1148
    _ZN4aubo5robot13communication28ProtoCommunicationRobotEvent10descriptorEv @1149
    _ZN4aubo5robot13communication28ProtoCommunicationRobotEvent16default_instanceEv @1150
    _ZN4aubo5robot13communication28ProtoCommunicationRobotEvent17default_instance_E @1151 DATA
    _ZN4aubo5robot13communication28ProtoCommunicationRobotEvent21InitAsDefaultInstanceEv @1152
    _ZN4aubo5robot13communication28ProtoCommunicationRobotEvent21kEventCodeFieldNumberE @1153 DATA
    _ZN4aubo5robot13communication28ProtoCommunicationRobotEvent21kEventTypeFieldNumberE @1154 DATA
    _ZN4aubo5robot13communication28ProtoCommunicationRobotEvent24kEventContentFieldNumberE @1155 DATA
    _ZN4aubo5robot13communication28ProtoCommunicationRobotEvent27MergePartialFromCodedStreamEPN6google8protobuf2io16CodedInputStreamE @1156
    _ZN4aubo5robot13communication28ProtoCommunicationRobotEvent4SwapEPS2_ @1157
    _ZN4aubo5robot13communication28ProtoCommunicationRobotEvent5ClearEv @1158
    _ZN4aubo5robot13communication28ProtoCommunicationRobotEvent8CopyFromERKN6google8protobuf7MessageE @1159
    _ZN4aubo5robot13communication28ProtoCommunicationRobotEvent8CopyFromERKS2_ @1160
    _ZN4aubo5robot13communication28ProtoCommunicationRobotEvent9MergeFromERKN6google8protobuf7MessageE @1161
    _ZN4aubo5robot13communication28ProtoCommunicationRobotEvent9MergeFromERKS2_ @1162
    _ZN4aubo5robot13communication28ProtoCommunicationRobotEventC1ERKS2_ @1163
    _ZN4aubo5robot13communication28ProtoCommunicationRobotEventC1Ev @1164
    _ZN4aubo5robot13communication28ProtoCommunicationRobotEventC2ERKS2_ @1165
    _ZN4aubo5robot13communication28ProtoCommunicationRobotEventC2Ev @1166
    _ZN4aubo5robot13communication28ProtoCommunicationRobotEventD0Ev @1167
    _ZN4aubo5robot13communication28ProtoCommunicationRobotEventD1Ev @1168
    _ZN4aubo5robot13communication28ProtoCommunicationRobotEventD2Ev @1169
    _ZN4aubo5robot13communication29ProtoCommunicationGeneralData10SharedCtorEv @1170
    _ZN4aubo5robot13communication29ProtoCommunicationGeneralData10SharedDtorEv @1171
    _ZN4aubo5robot13communication29ProtoCommunicationGeneralData10descriptorEv @1172
    _ZN4aubo5robot13communication29ProtoCommunicationGeneralData16default_instanceEv @1173
    _ZN4aubo5robot13communication29ProtoCommunicationGeneralData16kTypeFieldNumberE @1174 DATA
    _ZN4aubo5robot13communication29ProtoCommunicationGeneralData17default_instance_E @1175 DATA
    _ZN4aubo5robot13communication29ProtoCommunicationGeneralData21InitAsDefaultInstanceEv @1176
    _ZN4aubo5robot13communication29ProtoCommunicationGeneralData21kErrorInfoFieldNumberE @1177 DATA
    _ZN4aubo5robot13communication29ProtoCommunicationGeneralData21kProperty1FieldNumberE @1178 DATA
    _ZN4aubo5robot13communication29ProtoCommunicationGeneralData21kProperty2FieldNumberE @1179 DATA
    _ZN4aubo5robot13communication29ProtoCommunicationGeneralData27MergePartialFromCodedStreamEPN6google8protobuf2io16CodedInputStreamE @1180
    _ZN4aubo5robot13communication29ProtoCommunicationGeneralData4SwapEPS2_ @1181
    _ZN4aubo5robot13communication29ProtoCommunicationGeneralData5ClearEv @1182
    _ZN4aubo5robot13communication29ProtoCommunicationGeneralData8CopyFromERKN6google8protobuf7MessageE @1183
    _ZN4aubo5robot13communication29ProtoCommunicationGeneralData8CopyFromERKS2_ @1184
    _ZN4aubo5robot13communication29ProtoCommunicationGeneralData9MergeFromERKN6google8protobuf7MessageE @1185
    _ZN4aubo5robot13communication29ProtoCommunicationGeneralData9MergeFromERKS2_ @1186
    _ZN4aubo5robot13communication29ProtoCommunicationGeneralDataC1ERKS2_ @1187
    _ZN4aubo5robot13communication29ProtoCommunicationGeneralDataC1Ev @1188
    _ZN4aubo5robot13communication29ProtoCommunicationGeneralDataC2ERKS2_ @1189
    _ZN4aubo5robot13communication29ProtoCommunicationGeneralDataC2Ev @1190
    _ZN4aubo5robot13communication29ProtoCommunicationGeneralDataD0Ev @1191
    _ZN4aubo5robot13communication29ProtoCommunicationGeneralDataD1Ev @1192
    _ZN4aubo5robot13communication29ProtoCommunicationGeneralDataD2Ev @1193
    _ZN4aubo5robot13communication30ProtoCommunicationDoubleVector10SharedCtorEv @1194
    _ZN4aubo5robot13communication30ProtoCommunicationDoubleVector10SharedDtorEv @1195
    _ZN4aubo5robot13communication30ProtoCommunicationDoubleVector10descriptorEv @1196
    _ZN4aubo5robot13communication30ProtoCommunicationDoubleVector15kNumFieldNumberE @1197 DATA
    _ZN4aubo5robot13communication30ProtoCommunicationDoubleVector16default_instanceEv @1198
    _ZN4aubo5robot13communication30ProtoCommunicationDoubleVector17default_instance_E @1199 DATA
    _ZN4aubo5robot13communication30ProtoCommunicationDoubleVector17kValueFieldNumberE @1200 DATA
    _ZN4aubo5robot13communication30ProtoCommunicationDoubleVector21InitAsDefaultInstanceEv @1201
    _ZN4aubo5robot13communication30ProtoCommunicationDoubleVector27MergePartialFromCodedStreamEPN6google8protobuf2io16CodedInputStreamE @1202
    _ZN4aubo5robot13communication30ProtoCommunicationDoubleVector4SwapEPS2_ @1203
    _ZN4aubo5robot13communication30ProtoCommunicationDoubleVector5ClearEv @1204
    _ZN4aubo5robot13communication30ProtoCommunicationDoubleVector8CopyFromERKN6google8protobuf7MessageE @1205
    _ZN4aubo5robot13communication30ProtoCommunicationDoubleVector8CopyFromERKS2_ @1206
    _ZN4aubo5robot13communication30ProtoCommunicationDoubleVector9MergeFromERKN6google8protobuf7MessageE @1207
    _ZN4aubo5robot13communication30ProtoCommunicationDoubleVector9MergeFromERKS2_ @1208
    _ZN4aubo5robot13communication30ProtoCommunicationDoubleVectorC1ERKS2_ @1209
    _ZN4aubo5robot13communication30ProtoCommunicationDoubleVectorC1Ev @1210
    _ZN4aubo5robot13communication30ProtoCommunicationDoubleVectorC2ERKS2_ @1211
    _ZN4aubo5robot13communication30ProtoCommunicationDoubleVectorC2Ev @1212
    _ZN4aubo5robot13communication30ProtoCommunicationDoubleVectorD0Ev @1213
    _ZN4aubo5robot13communication30ProtoCommunicationDoubleVectorD1Ev @1214
    _ZN4aubo5robot13communication30ProtoCommunicationDoubleVectorD2Ev @1215
    _ZN4aubo5robot13communication34ProtoCommunicationOfflineExcitTraj10SharedCtorEv @1216
    _ZN4aubo5robot13communication34ProtoCommunicationOfflineExcitTraj10SharedDtorEv @1217
    _ZN4aubo5robot13communication34ProtoCommunicationOfflineExcitTraj10descriptorEv @1218
    _ZN4aubo5robot13communication34ProtoCommunicationOfflineExcitTraj16default_instanceEv @1219
    _ZN4aubo5robot13communication34ProtoCommunicationOfflineExcitTraj16kTypeFieldNumberE @1220 DATA
    _ZN4aubo5robot13communication34ProtoCommunicationOfflineExcitTraj17default_instance_E @1221 DATA
    _ZN4aubo5robot13communication34ProtoCommunicationOfflineExcitTraj19kSubtypeFieldNumberE @1222 DATA
    _ZN4aubo5robot13communication34ProtoCommunicationOfflineExcitTraj21InitAsDefaultInstanceEv @1223
    _ZN4aubo5robot13communication34ProtoCommunicationOfflineExcitTraj21kTrackFileFieldNumberE @1224 DATA
    _ZN4aubo5robot13communication34ProtoCommunicationOfflineExcitTraj27MergePartialFromCodedStreamEPN6google8protobuf2io16CodedInputStreamE @1225
    _ZN4aubo5robot13communication34ProtoCommunicationOfflineExcitTraj4SwapEPS2_ @1226
    _ZN4aubo5robot13communication34ProtoCommunicationOfflineExcitTraj5ClearEv @1227
    _ZN4aubo5robot13communication34ProtoCommunicationOfflineExcitTraj8CopyFromERKN6google8protobuf7MessageE @1228
    _ZN4aubo5robot13communication34ProtoCommunicationOfflineExcitTraj8CopyFromERKS2_ @1229
    _ZN4aubo5robot13communication34ProtoCommunicationOfflineExcitTraj9MergeFromERKN6google8protobuf7MessageE @1230
    _ZN4aubo5robot13communication34ProtoCommunicationOfflineExcitTraj9MergeFromERKS2_ @1231
    _ZN4aubo5robot13communication34ProtoCommunicationOfflineExcitTrajC1ERKS2_ @1232
    _ZN4aubo5robot13communication34ProtoCommunicationOfflineExcitTrajC1Ev @1233
    _ZN4aubo5robot13communication34ProtoCommunicationOfflineExcitTrajC2ERKS2_ @1234
    _ZN4aubo5robot13communication34ProtoCommunicationOfflineExcitTrajC2Ev @1235
    _ZN4aubo5robot13communication34ProtoCommunicationOfflineExcitTrajD0Ev @1236
    _ZN4aubo5robot13communication34ProtoCommunicationOfflineExcitTrajD1Ev @1237
    _ZN4aubo5robot13communication34ProtoCommunicationOfflineExcitTrajD2Ev @1238
    _ZN4aubo5robot13communication35ProtoCommunicationIntVectorResponse10SharedCtorEv @1239
    _ZN4aubo5robot13communication35ProtoCommunicationIntVectorResponse10SharedDtorEv @1240
    _ZN4aubo5robot13communication35ProtoCommunicationIntVectorResponse10descriptorEv @1241
    _ZN4aubo5robot13communication35ProtoCommunicationIntVectorResponse15kNumFieldNumberE @1242 DATA
    _ZN4aubo5robot13communication35ProtoCommunicationIntVectorResponse16default_instanceEv @1243
    _ZN4aubo5robot13communication35ProtoCommunicationIntVectorResponse17default_instance_E @1244 DATA
    _ZN4aubo5robot13communication35ProtoCommunicationIntVectorResponse17kValueFieldNumberE @1245 DATA
    _ZN4aubo5robot13communication35ProtoCommunicationIntVectorResponse21InitAsDefaultInstanceEv @1246
    _ZN4aubo5robot13communication35ProtoCommunicationIntVectorResponse21kErrorInfoFieldNumberE @1247 DATA
    _ZN4aubo5robot13communication35ProtoCommunicationIntVectorResponse27MergePartialFromCodedStreamEPN6google8protobuf2io16CodedInputStreamE @1248
    _ZN4aubo5robot13communication35ProtoCommunicationIntVectorResponse4SwapEPS2_ @1249
    _ZN4aubo5robot13communication35ProtoCommunicationIntVectorResponse5ClearEv @1250
    _ZN4aubo5robot13communication35ProtoCommunicationIntVectorResponse8CopyFromERKN6google8protobuf7MessageE @1251
    _ZN4aubo5robot13communication35ProtoCommunicationIntVectorResponse8CopyFromERKS2_ @1252
    _ZN4aubo5robot13communication35ProtoCommunicationIntVectorResponse9MergeFromERKN6google8protobuf7MessageE @1253
    _ZN4aubo5robot13communication35ProtoCommunicationIntVectorResponse9MergeFromERKS2_ @1254
    _ZN4aubo5robot13communication35ProtoCommunicationIntVectorResponseC1ERKS2_ @1255
    _ZN4aubo5robot13communication35ProtoCommunicationIntVectorResponseC1Ev @1256
    _ZN4aubo5robot13communication35ProtoCommunicationIntVectorResponseC2ERKS2_ @1257
    _ZN4aubo5robot13communication35ProtoCommunicationIntVectorResponseC2Ev @1258
    _ZN4aubo5robot13communication35ProtoCommunicationIntVectorResponseD0Ev @1259
    _ZN4aubo5robot13communication35ProtoCommunicationIntVectorResponseD1Ev @1260
    _ZN4aubo5robot13communication35ProtoCommunicationIntVectorResponseD2Ev @1261
    _ZN4aubo5robot13communication35ProtoCommunicationRobotAnalogIOData10SharedCtorEv @1262
    _ZN4aubo5robot13communication35ProtoCommunicationRobotAnalogIOData10SharedDtorEv @1263
    _ZN4aubo5robot13communication35ProtoCommunicationRobotAnalogIOData10descriptorEv @1264
    _ZN4aubo5robot13communication35ProtoCommunicationRobotAnalogIOData16default_instanceEv @1265
    _ZN4aubo5robot13communication35ProtoCommunicationRobotAnalogIOData16kTypeFieldNumberE @1266 DATA
    _ZN4aubo5robot13communication35ProtoCommunicationRobotAnalogIOData17default_instance_E @1267 DATA
    _ZN4aubo5robot13communication35ProtoCommunicationRobotAnalogIOData18kIoDescFieldNumberE @1268 DATA
    _ZN4aubo5robot13communication35ProtoCommunicationRobotAnalogIOData21InitAsDefaultInstanceEv @1269
    _ZN4aubo5robot13communication35ProtoCommunicationRobotAnalogIOData21kErrorInfoFieldNumberE @1270 DATA
    _ZN4aubo5robot13communication35ProtoCommunicationRobotAnalogIOData27MergePartialFromCodedStreamEPN6google8protobuf2io16CodedInputStreamE @1271
    _ZN4aubo5robot13communication35ProtoCommunicationRobotAnalogIOData4SwapEPS2_ @1272
    _ZN4aubo5robot13communication35ProtoCommunicationRobotAnalogIOData5ClearEv @1273
    _ZN4aubo5robot13communication35ProtoCommunicationRobotAnalogIOData8CopyFromERKN6google8protobuf7MessageE @1274
    _ZN4aubo5robot13communication35ProtoCommunicationRobotAnalogIOData8CopyFromERKS2_ @1275
    _ZN4aubo5robot13communication35ProtoCommunicationRobotAnalogIOData9MergeFromERKN6google8protobuf7MessageE @1276
    _ZN4aubo5robot13communication35ProtoCommunicationRobotAnalogIOData9MergeFromERKS2_ @1277
    _ZN4aubo5robot13communication35ProtoCommunicationRobotAnalogIODataC1ERKS2_ @1278
    _ZN4aubo5robot13communication35ProtoCommunicationRobotAnalogIODataC1Ev @1279
    _ZN4aubo5robot13communication35ProtoCommunicationRobotAnalogIODataC2ERKS2_ @1280
    _ZN4aubo5robot13communication35ProtoCommunicationRobotAnalogIODataC2Ev @1281
    _ZN4aubo5robot13communication35ProtoCommunicationRobotAnalogIODataD0Ev @1282
    _ZN4aubo5robot13communication35ProtoCommunicationRobotAnalogIODataD1Ev @1283
    _ZN4aubo5robot13communication35ProtoCommunicationRobotAnalogIODataD2Ev @1284
    _ZN4aubo5robot13communication36ProtoCommunicationDynIdentifyResults10SharedCtorEv @1285
    _ZN4aubo5robot13communication36ProtoCommunicationDynIdentifyResults10SharedDtorEv @1286
    _ZN4aubo5robot13communication36ProtoCommunicationDynIdentifyResults10descriptorEv @1287
    _ZN4aubo5robot13communication36ProtoCommunicationDynIdentifyResults16default_instanceEv @1288
    _ZN4aubo5robot13communication36ProtoCommunicationDynIdentifyResults16kTempFieldNumberE @1289 DATA
    _ZN4aubo5robot13communication36ProtoCommunicationDynIdentifyResults17default_instance_E @1290 DATA
    _ZN4aubo5robot13communication36ProtoCommunicationDynIdentifyResults17kParamFieldNumberE @1291 DATA
    _ZN4aubo5robot13communication36ProtoCommunicationDynIdentifyResults21InitAsDefaultInstanceEv @1292
    _ZN4aubo5robot13communication36ProtoCommunicationDynIdentifyResults21kErrorInfoFieldNumberE @1293 DATA
    _ZN4aubo5robot13communication36ProtoCommunicationDynIdentifyResults27MergePartialFromCodedStreamEPN6google8protobuf2io16CodedInputStreamE @1294
    _ZN4aubo5robot13communication36ProtoCommunicationDynIdentifyResults4SwapEPS2_ @1295
    _ZN4aubo5robot13communication36ProtoCommunicationDynIdentifyResults5ClearEv @1296
    _ZN4aubo5robot13communication36ProtoCommunicationDynIdentifyResults8CopyFromERKN6google8protobuf7MessageE @1297
    _ZN4aubo5robot13communication36ProtoCommunicationDynIdentifyResults8CopyFromERKS2_ @1298
    _ZN4aubo5robot13communication36ProtoCommunicationDynIdentifyResults9MergeFromERKN6google8protobuf7MessageE @1299
    _ZN4aubo5robot13communication36ProtoCommunicationDynIdentifyResults9MergeFromERKS2_ @1300
    _ZN4aubo5robot13communication36ProtoCommunicationDynIdentifyResultsC1ERKS2_ @1301
    _ZN4aubo5robot13communication36ProtoCommunicationDynIdentifyResultsC1Ev @1302
    _ZN4aubo5robot13communication36ProtoCommunicationDynIdentifyResultsC2ERKS2_ @1303
    _ZN4aubo5robot13communication36ProtoCommunicationDynIdentifyResultsC2Ev @1304
    _ZN4aubo5robot13communication36ProtoCommunicationDynIdentifyResultsD0Ev @1305
    _ZN4aubo5robot13communication36ProtoCommunicationDynIdentifyResultsD1Ev @1306
    _ZN4aubo5robot13communication36ProtoCommunicationDynIdentifyResultsD2Ev @1307
    _ZN4aubo5robot13communication36ProtoCommunicationRobotBoardFirmware10SharedCtorEv @1308
    _ZN4aubo5robot13communication36ProtoCommunicationRobotBoardFirmware10SharedDtorEv @1309
    _ZN4aubo5robot13communication36ProtoCommunicationRobotBoardFirmware10descriptorEv @1310
    _ZN4aubo5robot13communication36ProtoCommunicationRobotBoardFirmware16default_instanceEv @1311
    _ZN4aubo5robot13communication36ProtoCommunicationRobotBoardFirmware17default_instance_E @1312 DATA
    _ZN4aubo5robot13communication36ProtoCommunicationRobotBoardFirmware19kCommandFieldNumberE @1313 DATA
    _ZN4aubo5robot13communication36ProtoCommunicationRobotBoardFirmware21InitAsDefaultInstanceEv @1314
    _ZN4aubo5robot13communication36ProtoCommunicationRobotBoardFirmware27MergePartialFromCodedStreamEPN6google8protobuf2io16CodedInputStreamE @1315
    _ZN4aubo5robot13communication36ProtoCommunicationRobotBoardFirmware27kFirmwareContentFieldNumberE @1316 DATA
    _ZN4aubo5robot13communication36ProtoCommunicationRobotBoardFirmware31kFirmwareContentSizeFieldNumberE @1317 DATA
    _ZN4aubo5robot13communication36ProtoCommunicationRobotBoardFirmware4SwapEPS2_ @1318
    _ZN4aubo5robot13communication36ProtoCommunicationRobotBoardFirmware5ClearEv @1319
    _ZN4aubo5robot13communication36ProtoCommunicationRobotBoardFirmware8CopyFromERKN6google8protobuf7MessageE @1320
    _ZN4aubo5robot13communication36ProtoCommunicationRobotBoardFirmware8CopyFromERKS2_ @1321
    _ZN4aubo5robot13communication36ProtoCommunicationRobotBoardFirmware9MergeFromERKN6google8protobuf7MessageE @1322
    _ZN4aubo5robot13communication36ProtoCommunicationRobotBoardFirmware9MergeFromERKS2_ @1323
    _ZN4aubo5robot13communication36ProtoCommunicationRobotBoardFirmwareC1ERKS2_ @1324
    _ZN4aubo5robot13communication36ProtoCommunicationRobotBoardFirmwareC1Ev @1325
    _ZN4aubo5robot13communication36ProtoCommunicationRobotBoardFirmwareC2ERKS2_ @1326
    _ZN4aubo5robot13communication36ProtoCommunicationRobotBoardFirmwareC2Ev @1327
    _ZN4aubo5robot13communication36ProtoCommunicationRobotBoardFirmwareD0Ev @1328
    _ZN4aubo5robot13communication36ProtoCommunicationRobotBoardFirmwareD1Ev @1329
    _ZN4aubo5robot13communication36ProtoCommunicationRobotBoardFirmwareD2Ev @1330
    _ZN4aubo5robot13communication36ProtoCommunicationRobotDiagnosisInfo10SharedCtorEv @1331
    _ZN4aubo5robot13communication36ProtoCommunicationRobotDiagnosisInfo10SharedDtorEv @1332
    _ZN4aubo5robot13communication36ProtoCommunicationRobotDiagnosisInfo10descriptorEv @1333
    _ZN4aubo5robot13communication36ProtoCommunicationRobotDiagnosisInfo15kNumFieldNumberE @1334 DATA
    _ZN4aubo5robot13communication36ProtoCommunicationRobotDiagnosisInfo16default_instanceEv @1335
    _ZN4aubo5robot13communication36ProtoCommunicationRobotDiagnosisInfo17default_instance_E @1336 DATA
    _ZN4aubo5robot13communication36ProtoCommunicationRobotDiagnosisInfo21InitAsDefaultInstanceEv @1337
    _ZN4aubo5robot13communication36ProtoCommunicationRobotDiagnosisInfo21kErrorInfoFieldNumberE @1338 DATA
    _ZN4aubo5robot13communication36ProtoCommunicationRobotDiagnosisInfo26kRobotDiagnosisFieldNumberE @1339 DATA
    _ZN4aubo5robot13communication36ProtoCommunicationRobotDiagnosisInfo27MergePartialFromCodedStreamEPN6google8protobuf2io16CodedInputStreamE @1340
    _ZN4aubo5robot13communication36ProtoCommunicationRobotDiagnosisInfo4SwapEPS2_ @1341
    _ZN4aubo5robot13communication36ProtoCommunicationRobotDiagnosisInfo5ClearEv @1342
    _ZN4aubo5robot13communication36ProtoCommunicationRobotDiagnosisInfo8CopyFromERKN6google8protobuf7MessageE @1343
    _ZN4aubo5robot13communication36ProtoCommunicationRobotDiagnosisInfo8CopyFromERKS2_ @1344
    _ZN4aubo5robot13communication36ProtoCommunicationRobotDiagnosisInfo9MergeFromERKN6google8protobuf7MessageE @1345
    _ZN4aubo5robot13communication36ProtoCommunicationRobotDiagnosisInfo9MergeFromERKS2_ @1346
    _ZN4aubo5robot13communication36ProtoCommunicationRobotDiagnosisInfoC1ERKS2_ @1347
    _ZN4aubo5robot13communication36ProtoCommunicationRobotDiagnosisInfoC1Ev @1348
    _ZN4aubo5robot13communication36ProtoCommunicationRobotDiagnosisInfoC2ERKS2_ @1349
    _ZN4aubo5robot13communication36ProtoCommunicationRobotDiagnosisInfoC2Ev @1350
    _ZN4aubo5robot13communication36ProtoCommunicationRobotDiagnosisInfoD0Ev @1351
    _ZN4aubo5robot13communication36ProtoCommunicationRobotDiagnosisInfoD1Ev @1352
    _ZN4aubo5robot13communication36ProtoCommunicationRobotDiagnosisInfoD2Ev @1353
    _ZN4aubo5robot13communication37ProtoCommunicationRobotStartupProfile10SharedCtorEv @1354
    _ZN4aubo5robot13communication37ProtoCommunicationRobotStartupProfile10SharedDtorEv @1355
    _ZN4aubo5robot13communication37ProtoCommunicationRobotStartupProfile10descriptorEv @1356
    _ZN4aubo5robot13communication37ProtoCommunicationRobotStartupProfile16default_instanceEv @1357
    _ZN4aubo5robot13communication37ProtoCommunicationRobotStartupProfile17default_instance_E @1358 DATA
    _ZN4aubo5robot13communication37ProtoCommunicationRobotStartupProfile18kMaxAccFieldNumberE @1359 DATA
    _ZN4aubo5robot13communication37ProtoCommunicationRobotStartupProfile20kReadPoseFieldNumberE @1360 DATA
    _ZN4aubo5robot13communication37ProtoCommunicationRobotStartupProfile20kTcpParamFieldNumberE @1361 DATA
    _ZN4aubo5robot13communication37ProtoCommunicationRobotStartupProfile21InitAsDefaultInstanceEv @1362
    _ZN4aubo5robot13communication37ProtoCommunicationRobotStartupProfile26kCollisionClassFieldNumberE @1363 DATA
    _ZN4aubo5robot13communication37ProtoCommunicationRobotStartupProfile27MergePartialFromCodedStreamEPN6google8protobuf2io16CodedInputStreamE @1364
    _ZN4aubo5robot13communication37ProtoCommunicationRobotStartupProfile33kStaticCollisionDetectFieldNumberE @1365 DATA
    _ZN4aubo5robot13communication37ProtoCommunicationRobotStartupProfile4SwapEPS2_ @1366
    _ZN4aubo5robot13communication37ProtoCommunicationRobotStartupProfile5ClearEv @1367
    _ZN4aubo5robot13communication37ProtoCommunicationRobotStartupProfile8CopyFromERKN6google8protobuf7MessageE @1368
    _ZN4aubo5robot13communication37ProtoCommunicationRobotStartupProfile8CopyFromERKS2_ @1369
    _ZN4aubo5robot13communication37ProtoCommunicationRobotStartupProfile9MergeFromERKN6google8protobuf7MessageE @1370
    _ZN4aubo5robot13communication37ProtoCommunicationRobotStartupProfile9MergeFromERKS2_ @1371
    _ZN4aubo5robot13communication37ProtoCommunicationRobotStartupProfileC1ERKS2_ @1372
    _ZN4aubo5robot13communication37ProtoCommunicationRobotStartupProfileC1Ev @1373
    _ZN4aubo5robot13communication37ProtoCommunicationRobotStartupProfileC2ERKS2_ @1374
    _ZN4aubo5robot13communication37ProtoCommunicationRobotStartupProfileC2Ev @1375
    _ZN4aubo5robot13communication37ProtoCommunicationRobotStartupProfileD0Ev @1376
    _ZN4aubo5robot13communication37ProtoCommunicationRobotStartupProfileD1Ev @1377
    _ZN4aubo5robot13communication37ProtoCommunicationRobotStartupProfileD2Ev @1378
    _ZN4aubo5robot13communication38ProtoCommunicationDoubleVectorResponse10SharedCtorEv @1379
    _ZN4aubo5robot13communication38ProtoCommunicationDoubleVectorResponse10SharedDtorEv @1380
    _ZN4aubo5robot13communication38ProtoCommunicationDoubleVectorResponse10descriptorEv @1381
    _ZN4aubo5robot13communication38ProtoCommunicationDoubleVectorResponse15kNumFieldNumberE @1382 DATA
    _ZN4aubo5robot13communication38ProtoCommunicationDoubleVectorResponse16default_instanceEv @1383
    _ZN4aubo5robot13communication38ProtoCommunicationDoubleVectorResponse17default_instance_E @1384 DATA
    _ZN4aubo5robot13communication38ProtoCommunicationDoubleVectorResponse17kValueFieldNumberE @1385 DATA
    _ZN4aubo5robot13communication38ProtoCommunicationDoubleVectorResponse21InitAsDefaultInstanceEv @1386
    _ZN4aubo5robot13communication38ProtoCommunicationDoubleVectorResponse21kErrorInfoFieldNumberE @1387 DATA
    _ZN4aubo5robot13communication38ProtoCommunicationDoubleVectorResponse27MergePartialFromCodedStreamEPN6google8protobuf2io16CodedInputStreamE @1388
    _ZN4aubo5robot13communication38ProtoCommunicationDoubleVectorResponse4SwapEPS2_ @1389
    _ZN4aubo5robot13communication38ProtoCommunicationDoubleVectorResponse5ClearEv @1390
    _ZN4aubo5robot13communication38ProtoCommunicationDoubleVectorResponse8CopyFromERKN6google8protobuf7MessageE @1391
    _ZN4aubo5robot13communication38ProtoCommunicationDoubleVectorResponse8CopyFromERKS2_ @1392
    _ZN4aubo5robot13communication38ProtoCommunicationDoubleVectorResponse9MergeFromERKN6google8protobuf7MessageE @1393
    _ZN4aubo5robot13communication38ProtoCommunicationDoubleVectorResponse9MergeFromERKS2_ @1394
    _ZN4aubo5robot13communication38ProtoCommunicationDoubleVectorResponseC1ERKS2_ @1395
    _ZN4aubo5robot13communication38ProtoCommunicationDoubleVectorResponseC1Ev @1396
    _ZN4aubo5robot13communication38ProtoCommunicationDoubleVectorResponseC2ERKS2_ @1397
    _ZN4aubo5robot13communication38ProtoCommunicationDoubleVectorResponseC2Ev @1398
    _ZN4aubo5robot13communication38ProtoCommunicationDoubleVectorResponseD0Ev @1399
    _ZN4aubo5robot13communication38ProtoCommunicationDoubleVectorResponseD1Ev @1400
    _ZN4aubo5robot13communication38ProtoCommunicationDoubleVectorResponseD2Ev @1401
    _ZN4aubo5robot13communication38ProtoCommunicationRobotDiagnosisIOData10SharedCtorEv @1402
    _ZN4aubo5robot13communication38ProtoCommunicationRobotDiagnosisIOData10SharedDtorEv @1403
    _ZN4aubo5robot13communication38ProtoCommunicationRobotDiagnosisIOData10descriptorEv @1404
    _ZN4aubo5robot13communication38ProtoCommunicationRobotDiagnosisIOData16default_instanceEv @1405
    _ZN4aubo5robot13communication38ProtoCommunicationRobotDiagnosisIOData16kTypeFieldNumberE @1406 DATA
    _ZN4aubo5robot13communication38ProtoCommunicationRobotDiagnosisIOData17default_instance_E @1407 DATA
    _ZN4aubo5robot13communication38ProtoCommunicationRobotDiagnosisIOData18kIoDescFieldNumberE @1408 DATA
    _ZN4aubo5robot13communication38ProtoCommunicationRobotDiagnosisIOData21InitAsDefaultInstanceEv @1409
    _ZN4aubo5robot13communication38ProtoCommunicationRobotDiagnosisIOData21kErrorInfoFieldNumberE @1410 DATA
    _ZN4aubo5robot13communication38ProtoCommunicationRobotDiagnosisIOData27MergePartialFromCodedStreamEPN6google8protobuf2io16CodedInputStreamE @1411
    _ZN4aubo5robot13communication38ProtoCommunicationRobotDiagnosisIOData4SwapEPS2_ @1412
    _ZN4aubo5robot13communication38ProtoCommunicationRobotDiagnosisIOData5ClearEv @1413
    _ZN4aubo5robot13communication38ProtoCommunicationRobotDiagnosisIOData8CopyFromERKN6google8protobuf7MessageE @1414
    _ZN4aubo5robot13communication38ProtoCommunicationRobotDiagnosisIOData8CopyFromERKS2_ @1415
    _ZN4aubo5robot13communication38ProtoCommunicationRobotDiagnosisIOData9MergeFromERKN6google8protobuf7MessageE @1416
    _ZN4aubo5robot13communication38ProtoCommunicationRobotDiagnosisIOData9MergeFromERKS2_ @1417
    _ZN4aubo5robot13communication38ProtoCommunicationRobotDiagnosisIODataC1ERKS2_ @1418
    _ZN4aubo5robot13communication38ProtoCommunicationRobotDiagnosisIODataC1Ev @1419
    _ZN4aubo5robot13communication38ProtoCommunicationRobotDiagnosisIODataC2ERKS2_ @1420
    _ZN4aubo5robot13communication38ProtoCommunicationRobotDiagnosisIODataC2Ev @1421
    _ZN4aubo5robot13communication38ProtoCommunicationRobotDiagnosisIODataD0Ev @1422
    _ZN4aubo5robot13communication38ProtoCommunicationRobotDiagnosisIODataD1Ev @1423
    _ZN4aubo5robot13communication38ProtoCommunicationRobotDiagnosisIODataD2Ev @1424
    _ZN4aubo5robot13communication43protobuf_AddDesc_robotcommunication_2eprotoEv @1425
    _ZN4aubo5robot13communication44ProtoCommunicationEthernetDeviceNameResponse10SharedCtorEv @1426
    _ZN4aubo5robot13communication44ProtoCommunicationEthernetDeviceNameResponse10SharedDtorEv @1427
    _ZN4aubo5robot13communication44ProtoCommunicationEthernetDeviceNameResponse10descriptorEv @1428
    _ZN4aubo5robot13communication44ProtoCommunicationEthernetDeviceNameResponse16default_instanceEv @1429
    _ZN4aubo5robot13communication44ProtoCommunicationEthernetDeviceNameResponse16kNameFieldNumberE @1430 DATA
    _ZN4aubo5robot13communication44ProtoCommunicationEthernetDeviceNameResponse17default_instance_E @1431 DATA
    _ZN4aubo5robot13communication44ProtoCommunicationEthernetDeviceNameResponse21InitAsDefaultInstanceEv @1432
    _ZN4aubo5robot13communication44ProtoCommunicationEthernetDeviceNameResponse21kErrorInfoFieldNumberE @1433 DATA
    _ZN4aubo5robot13communication44ProtoCommunicationEthernetDeviceNameResponse27MergePartialFromCodedStreamEPN6google8protobuf2io16CodedInputStreamE @1434
    _ZN4aubo5robot13communication44ProtoCommunicationEthernetDeviceNameResponse4SwapEPS2_ @1435
    _ZN4aubo5robot13communication44ProtoCommunicationEthernetDeviceNameResponse5ClearEv @1436
    _ZN4aubo5robot13communication44ProtoCommunicationEthernetDeviceNameResponse8CopyFromERKN6google8protobuf7MessageE @1437
    _ZN4aubo5robot13communication44ProtoCommunicationEthernetDeviceNameResponse8CopyFromERKS2_ @1438
    _ZN4aubo5robot13communication44ProtoCommunicationEthernetDeviceNameResponse9MergeFromERKN6google8protobuf7MessageE @1439
    _ZN4aubo5robot13communication44ProtoCommunicationEthernetDeviceNameResponse9MergeFromERKS2_ @1440
    _ZN4aubo5robot13communication44ProtoCommunicationEthernetDeviceNameResponseC1ERKS2_ @1441
    _ZN4aubo5robot13communication44ProtoCommunicationEthernetDeviceNameResponseC1Ev @1442
    _ZN4aubo5robot13communication44ProtoCommunicationEthernetDeviceNameResponseC2ERKS2_ @1443
    _ZN4aubo5robot13communication44ProtoCommunicationEthernetDeviceNameResponseC2Ev @1444
    _ZN4aubo5robot13communication44ProtoCommunicationEthernetDeviceNameResponseD0Ev @1445
    _ZN4aubo5robot13communication44ProtoCommunicationEthernetDeviceNameResponseD1Ev @1446
    _ZN4aubo5robot13communication44ProtoCommunicationEthernetDeviceNameResponseD2Ev @1447
    _ZN4aubo5robot13communication45ProtoCommunicationToolAllIOStatusInfoResponse10SharedCtorEv @1448
    _ZN4aubo5robot13communication45ProtoCommunicationToolAllIOStatusInfoResponse10SharedDtorEv @1449
    _ZN4aubo5robot13communication45ProtoCommunicationToolAllIOStatusInfoResponse10descriptorEv @1450
    _ZN4aubo5robot13communication45ProtoCommunicationToolAllIOStatusInfoResponse16default_instanceEv @1451
    _ZN4aubo5robot13communication45ProtoCommunicationToolAllIOStatusInfoResponse17default_instance_E @1452 DATA
    _ZN4aubo5robot13communication45ProtoCommunicationToolAllIOStatusInfoResponse21InitAsDefaultInstanceEv @1453
    _ZN4aubo5robot13communication45ProtoCommunicationToolAllIOStatusInfoResponse21kErrorInfoFieldNumberE @1454 DATA
    _ZN4aubo5robot13communication45ProtoCommunicationToolAllIOStatusInfoResponse24kToolIOStatusFieldNumberE @1455 DATA
    _ZN4aubo5robot13communication45ProtoCommunicationToolAllIOStatusInfoResponse27MergePartialFromCodedStreamEPN6google8protobuf2io16CodedInputStreamE @1456
    _ZN4aubo5robot13communication45ProtoCommunicationToolAllIOStatusInfoResponse4SwapEPS2_ @1457
    _ZN4aubo5robot13communication45ProtoCommunicationToolAllIOStatusInfoResponse5ClearEv @1458
    _ZN4aubo5robot13communication45ProtoCommunicationToolAllIOStatusInfoResponse8CopyFromERKN6google8protobuf7MessageE @1459
    _ZN4aubo5robot13communication45ProtoCommunicationToolAllIOStatusInfoResponse8CopyFromERKS2_ @1460
    _ZN4aubo5robot13communication45ProtoCommunicationToolAllIOStatusInfoResponse9MergeFromERKN6google8protobuf7MessageE @1461
    _ZN4aubo5robot13communication45ProtoCommunicationToolAllIOStatusInfoResponse9MergeFromERKS2_ @1462
    _ZN4aubo5robot13communication45ProtoCommunicationToolAllIOStatusInfoResponseC1ERKS2_ @1463
    _ZN4aubo5robot13communication45ProtoCommunicationToolAllIOStatusInfoResponseC1Ev @1464
    _ZN4aubo5robot13communication45ProtoCommunicationToolAllIOStatusInfoResponseC2ERKS2_ @1465
    _ZN4aubo5robot13communication45ProtoCommunicationToolAllIOStatusInfoResponseC2Ev @1466
    _ZN4aubo5robot13communication45ProtoCommunicationToolAllIOStatusInfoResponseD0Ev @1467
    _ZN4aubo5robot13communication45ProtoCommunicationToolAllIOStatusInfoResponseD1Ev @1468
    _ZN4aubo5robot13communication45ProtoCommunicationToolAllIOStatusInfoResponseD2Ev @1469
    _ZN4aubo5robot13communication46protobuf_AssignDesc_robotcommunication_2eprotoEv @1470
    _ZN4aubo5robot13communication48protobuf_ShutdownFile_robotcommunication_2eprotoEv @1471
    _ZN4aubo5robot13communication57static_descriptor_initializer_robotcommunication_2eproto_E @1472 DATA
    _ZN4aubo5robot13communication8TagIoCfg10SharedCtorEv @1473
    _ZN4aubo5robot13communication8TagIoCfg10SharedDtorEv @1474
    _ZN4aubo5robot13communication8TagIoCfg10descriptorEv @1475
    _ZN4aubo5robot13communication8TagIoCfg16default_instanceEv @1476
    _ZN4aubo5robot13communication8TagIoCfg16kIoIdFieldNumberE @1477 DATA
    _ZN4aubo5robot13communication8TagIoCfg17default_instance_E @1478 DATA
    _ZN4aubo5robot13communication8TagIoCfg18kIoNameFieldNumberE @1479 DATA
    _ZN4aubo5robot13communication8TagIoCfg18kIoTypeFieldNumberE @1480 DATA
    _ZN4aubo5robot13communication8TagIoCfg19kIoValueFieldNumberE @1481 DATA
    _ZN4aubo5robot13communication8TagIoCfg21InitAsDefaultInstanceEv @1482
    _ZN4aubo5robot13communication8TagIoCfg22kModbusUuidFieldNumberE @1483 DATA
    _ZN4aubo5robot13communication8TagIoCfg24kRegisterAddrFieldNumberE @1484 DATA
    _ZN4aubo5robot13communication8TagIoCfg27MergePartialFromCodedStreamEPN6google8protobuf2io16CodedInputStreamE @1485
    _ZN4aubo5robot13communication8TagIoCfg4SwapEPS2_ @1486
    _ZN4aubo5robot13communication8TagIoCfg5ClearEv @1487
    _ZN4aubo5robot13communication8TagIoCfg8CopyFromERKN6google8protobuf7MessageE @1488
    _ZN4aubo5robot13communication8TagIoCfg8CopyFromERKS2_ @1489
    _ZN4aubo5robot13communication8TagIoCfg9MergeFromERKN6google8protobuf7MessageE @1490
    _ZN4aubo5robot13communication8TagIoCfg9MergeFromERKS2_ @1491
    _ZN4aubo5robot13communication8TagIoCfgC1ERKS2_ @1492
    _ZN4aubo5robot13communication8TagIoCfgC1Ev @1493
    _ZN4aubo5robot13communication8TagIoCfgC2ERKS2_ @1494
    _ZN4aubo5robot13communication8TagIoCfgC2Ev @1495
    _ZN4aubo5robot13communication8TagIoCfgD0Ev @1496
    _ZN4aubo5robot13communication8TagIoCfgD1Ev @1497
    _ZN4aubo5robot13communication8TagIoCfgD2Ev @1498
    _ZN4aubo5robot13communication8TcpParam10SharedCtorEv @1499
    _ZN4aubo5robot13communication8TcpParam10SharedDtorEv @1500
    _ZN4aubo5robot13communication8TcpParam10descriptorEv @1501
    _ZN4aubo5robot13communication8TcpParam16default_instanceEv @1502
    _ZN4aubo5robot13communication8TcpParam17default_instance_E @1503 DATA
    _ZN4aubo5robot13communication8TcpParam19kPayloadFieldNumberE @1504 DATA
    _ZN4aubo5robot13communication8TcpParam21InitAsDefaultInstanceEv @1505
    _ZN4aubo5robot13communication8TcpParam21kPositionXFieldNumberE @1506 DATA
    _ZN4aubo5robot13communication8TcpParam21kPositionYFieldNumberE @1507 DATA
    _ZN4aubo5robot13communication8TcpParam21kPositionZFieldNumberE @1508 DATA
    _ZN4aubo5robot13communication8TcpParam27MergePartialFromCodedStreamEPN6google8protobuf2io16CodedInputStreamE @1509
    _ZN4aubo5robot13communication8TcpParam4SwapEPS2_ @1510
    _ZN4aubo5robot13communication8TcpParam5ClearEv @1511
    _ZN4aubo5robot13communication8TcpParam8CopyFromERKN6google8protobuf7MessageE @1512
    _ZN4aubo5robot13communication8TcpParam8CopyFromERKS2_ @1513
    _ZN4aubo5robot13communication8TcpParam9MergeFromERKN6google8protobuf7MessageE @1514
    _ZN4aubo5robot13communication8TcpParam9MergeFromERKS2_ @1515
    _ZN4aubo5robot13communication8TcpParamC1ERKS2_ @1516
    _ZN4aubo5robot13communication8TcpParamC1Ev @1517
    _ZN4aubo5robot13communication8TcpParamC2ERKS2_ @1518
    _ZN4aubo5robot13communication8TcpParamC2Ev @1519
    _ZN4aubo5robot13communication8TcpParamD0Ev @1520
    _ZN4aubo5robot13communication8TcpParamD1Ev @1521
    _ZN4aubo5robot13communication8TcpParamD2Ev @1522
    _ZN4aubo5robot13communication9ModbusCfg10SharedCtorEv @1523
    _ZN4aubo5robot13communication9ModbusCfg10SharedDtorEv @1524
    _ZN4aubo5robot13communication9ModbusCfg10descriptorEv @1525
    _ZN4aubo5robot13communication9ModbusCfg14kIpFieldNumberE @1526 DATA
    _ZN4aubo5robot13communication9ModbusCfg16default_instanceEv @1527
    _ZN4aubo5robot13communication9ModbusCfg16kBaudFieldNumberE @1528 DATA
    _ZN4aubo5robot13communication9ModbusCfg16kModeFieldNumberE @1529 DATA
    _ZN4aubo5robot13communication9ModbusCfg16kNameFieldNumberE @1530 DATA
    _ZN4aubo5robot13communication9ModbusCfg16kPortFieldNumberE @1531 DATA
    _ZN4aubo5robot13communication9ModbusCfg16kUuidFieldNumberE @1532 DATA
    _ZN4aubo5robot13communication9ModbusCfg17default_instance_E @1533 DATA
    _ZN4aubo5robot13communication9ModbusCfg17kSlaveFieldNumberE @1534 DATA
    _ZN4aubo5robot13communication9ModbusCfg18kDeviceFieldNumberE @1535 DATA
    _ZN4aubo5robot13communication9ModbusCfg18kParityFieldNumberE @1536 DATA
    _ZN4aubo5robot13communication9ModbusCfg20kDataBitsFieldNumberE @1537 DATA
    _ZN4aubo5robot13communication9ModbusCfg20kResponseFieldNumberE @1538 DATA
    _ZN4aubo5robot13communication9ModbusCfg20kStopBitsFieldNumberE @1539 DATA
    _ZN4aubo5robot13communication9ModbusCfg21InitAsDefaultInstanceEv @1540
    _ZN4aubo5robot13communication9ModbusCfg21kFrequencyFieldNumberE @1541 DATA
    _ZN4aubo5robot13communication9ModbusCfg27MergePartialFromCodedStreamEPN6google8protobuf2io16CodedInputStreamE @1542
    _ZN4aubo5robot13communication9ModbusCfg4SwapEPS2_ @1543
    _ZN4aubo5robot13communication9ModbusCfg5ClearEv @1544
    _ZN4aubo5robot13communication9ModbusCfg8CopyFromERKN6google8protobuf7MessageE @1545
    _ZN4aubo5robot13communication9ModbusCfg8CopyFromERKS2_ @1546
    _ZN4aubo5robot13communication9ModbusCfg9MergeFromERKN6google8protobuf7MessageE @1547
    _ZN4aubo5robot13communication9ModbusCfg9MergeFromERKS2_ @1548
    _ZN4aubo5robot13communication9ModbusCfgC1ERKS2_ @1549
    _ZN4aubo5robot13communication9ModbusCfgC1Ev @1550
    _ZN4aubo5robot13communication9ModbusCfgC2ERKS2_ @1551
    _ZN4aubo5robot13communication9ModbusCfgC2Ev @1552
    _ZN4aubo5robot13communication9ModbusCfgD0Ev @1553
    _ZN4aubo5robot13communication9ModbusCfgD1Ev @1554
    _ZN4aubo5robot13communication9ModbusCfgD2Ev @1555
    _ZN4aubo5robot13movecondition17move_mode_IsValidEi @1556
    _ZN4aubo5robot13movecondition18move_track_IsValidEi @1557
    _ZN4aubo5robot13movecondition18teach_mode_IsValidEi @1558
    _ZN4aubo5robot13movecondition19robot_state_IsValidEi @1559
    _ZN4aubo5robot13movecondition20move_mode_descriptorEv @1560
    _ZN4aubo5robot13movecondition21move_track_descriptorEv @1561
    _ZN4aubo5robot13movecondition21teach_mode_descriptorEv @1562
    _ZN4aubo5robot13movecondition22robot_state_descriptorEv @1563
    _ZN4aubo5robot13movecondition24coordinate_refer_IsValidEi @1564
    _ZN4aubo5robot13movecondition27coordinate_refer_descriptorEv @1565
    _ZN4aubo5robot13movecondition43protobuf_AddDesc_robotmovecondition_2eprotoEv @1566
    _ZN4aubo5robot13movecondition46protobuf_AssignDesc_robotmovecondition_2eprotoEv @1567
    _ZN4aubo5robot13movecondition48protobuf_ShutdownFile_robotmovecondition_2eprotoEv @1568
    _ZN4aubo5robot13movecondition57static_descriptor_initializer_robotmovecondition_2eproto_E @1569 DATA
    _ZN4aubo5robot6common11ToolInertia10SharedCtorEv @1570
    _ZN4aubo5robot6common11ToolInertia10SharedDtorEv @1571
    _ZN4aubo5robot6common11ToolInertia10descriptorEv @1572
    _ZN4aubo5robot6common11ToolInertia14kXxFieldNumberE @1573 DATA
    _ZN4aubo5robot6common11ToolInertia14kXyFieldNumberE @1574 DATA
    _ZN4aubo5robot6common11ToolInertia14kXzFieldNumberE @1575 DATA
    _ZN4aubo5robot6common11ToolInertia14kYyFieldNumberE @1576 DATA
    _ZN4aubo5robot6common11ToolInertia14kYzFieldNumberE @1577 DATA
    _ZN4aubo5robot6common11ToolInertia14kZzFieldNumberE @1578 DATA
    _ZN4aubo5robot6common11ToolInertia16default_instanceEv @1579
    _ZN4aubo5robot6common11ToolInertia17default_instance_E @1580 DATA
    _ZN4aubo5robot6common11ToolInertia21InitAsDefaultInstanceEv @1581
    _ZN4aubo5robot6common11ToolInertia27MergePartialFromCodedStreamEPN6google8protobuf2io16CodedInputStreamE @1582
    _ZN4aubo5robot6common11ToolInertia4SwapEPS2_ @1583
    _ZN4aubo5robot6common11ToolInertia5ClearEv @1584
    _ZN4aubo5robot6common11ToolInertia8CopyFromERKN6google8protobuf7MessageE @1585
    _ZN4aubo5robot6common11ToolInertia8CopyFromERKS2_ @1586
    _ZN4aubo5robot6common11ToolInertia9MergeFromERKN6google8protobuf7MessageE @1587
    _ZN4aubo5robot6common11ToolInertia9MergeFromERKS2_ @1588
    _ZN4aubo5robot6common11ToolInertiaC1ERKS2_ @1589
    _ZN4aubo5robot6common11ToolInertiaC1Ev @1590
    _ZN4aubo5robot6common11ToolInertiaC2ERKS2_ @1591
    _ZN4aubo5robot6common11ToolInertiaC2Ev @1592
    _ZN4aubo5robot6common11ToolInertiaD0Ev @1593
    _ZN4aubo5robot6common11ToolInertiaD1Ev @1594
    _ZN4aubo5robot6common11ToolInertiaD2Ev @1595
    _ZN4aubo5robot6common12joint_cart_U10SharedCtorEv @1596
    _ZN4aubo5robot6common12joint_cart_U10SharedDtorEv @1597
    _ZN4aubo5robot6common12joint_cart_U10descriptorEv @1598
    _ZN4aubo5robot6common12joint_cart_U16default_instanceEv @1599
    _ZN4aubo5robot6common12joint_cart_U17default_instance_E @1600 DATA
    _ZN4aubo5robot6common12joint_cart_U20kCartParaFieldNumberE @1601 DATA
    _ZN4aubo5robot6common12joint_cart_U21InitAsDefaultInstanceEv @1602
    _ZN4aubo5robot6common12joint_cart_U21kJointParaFieldNumberE @1603 DATA
    _ZN4aubo5robot6common12joint_cart_U27MergePartialFromCodedStreamEPN6google8protobuf2io16CodedInputStreamE @1604
    _ZN4aubo5robot6common12joint_cart_U4SwapEPS2_ @1605
    _ZN4aubo5robot6common12joint_cart_U5ClearEv @1606
    _ZN4aubo5robot6common12joint_cart_U8CopyFromERKN6google8protobuf7MessageE @1607
    _ZN4aubo5robot6common12joint_cart_U8CopyFromERKS2_ @1608
    _ZN4aubo5robot6common12joint_cart_U9MergeFromERKN6google8protobuf7MessageE @1609
    _ZN4aubo5robot6common12joint_cart_U9MergeFromERKS2_ @1610
    _ZN4aubo5robot6common12joint_cart_UC1ERKS2_ @1611
    _ZN4aubo5robot6common12joint_cart_UC1Ev @1612
    _ZN4aubo5robot6common12joint_cart_UC2ERKS2_ @1613
    _ZN4aubo5robot6common12joint_cart_UC2Ev @1614
    _ZN4aubo5robot6common12joint_cart_UD0Ev @1615
    _ZN4aubo5robot6common12joint_cart_UD1Ev @1616
    _ZN4aubo5robot6common12joint_cart_UD2Ev @1617
    _ZN4aubo5robot6common14ProtoRoadPoint10SharedCtorEv @1618
    _ZN4aubo5robot6common14ProtoRoadPoint10SharedDtorEv @1619
    _ZN4aubo5robot6common14ProtoRoadPoint10descriptorEv @1620
    _ZN4aubo5robot6common14ProtoRoadPoint16default_instanceEv @1621
    _ZN4aubo5robot6common14ProtoRoadPoint17default_instance_E @1622 DATA
    _ZN4aubo5robot6common14ProtoRoadPoint19kCartPosFieldNumberE @1623 DATA
    _ZN4aubo5robot6common14ProtoRoadPoint20kJointposFieldNumberE @1624 DATA
    _ZN4aubo5robot6common14ProtoRoadPoint21InitAsDefaultInstanceEv @1625
    _ZN4aubo5robot6common14ProtoRoadPoint23kOrientationFieldNumberE @1626 DATA
    _ZN4aubo5robot6common14ProtoRoadPoint27MergePartialFromCodedStreamEPN6google8protobuf2io16CodedInputStreamE @1627
    _ZN4aubo5robot6common14ProtoRoadPoint4SwapEPS2_ @1628
    _ZN4aubo5robot6common14ProtoRoadPoint5ClearEv @1629
    _ZN4aubo5robot6common14ProtoRoadPoint8CopyFromERKN6google8protobuf7MessageE @1630
    _ZN4aubo5robot6common14ProtoRoadPoint8CopyFromERKS2_ @1631
    _ZN4aubo5robot6common14ProtoRoadPoint9MergeFromERKN6google8protobuf7MessageE @1632
    _ZN4aubo5robot6common14ProtoRoadPoint9MergeFromERKS2_ @1633
    _ZN4aubo5robot6common14ProtoRoadPointC1ERKS2_ @1634
    _ZN4aubo5robot6common14ProtoRoadPointC1Ev @1635
    _ZN4aubo5robot6common14ProtoRoadPointC2ERKS2_ @1636
    _ZN4aubo5robot6common14ProtoRoadPointC2Ev @1637
    _ZN4aubo5robot6common14ProtoRoadPointD0Ev @1638
    _ZN4aubo5robot6common14ProtoRoadPointD1Ev @1639
    _ZN4aubo5robot6common14ProtoRoadPointD2Ev @1640
    _ZN4aubo5robot6common14RobotTeachMove10SharedCtorEv @1641
    _ZN4aubo5robot6common14RobotTeachMove10SharedDtorEv @1642
    _ZN4aubo5robot6common14RobotTeachMove10descriptorEv @1643
    _ZN4aubo5robot6common14RobotTeachMove16default_instanceEv @1644
    _ZN4aubo5robot6common14RobotTeachMove17default_instance_E @1645 DATA
    _ZN4aubo5robot6common14RobotTeachMove21InitAsDefaultInstanceEv @1646
    _ZN4aubo5robot6common14RobotTeachMove23kMoveProfileFieldNumberE @1647 DATA
    _ZN4aubo5robot6common14RobotTeachMove25kToolInEndDescFieldNumberE @1648 DATA
    _ZN4aubo5robot6common14RobotTeachMove27MergePartialFromCodedStreamEPN6google8protobuf2io16CodedInputStreamE @1649
    _ZN4aubo5robot6common14RobotTeachMove27kCalibrateMathodFieldNumberE @1650 DATA
    _ZN4aubo5robot6common14RobotTeachMove32kCoordinateSystemTypeFieldNumberE @1651 DATA
    _ZN4aubo5robot6common14RobotTeachMove36kCalibrateRoadPointVectorFieldNumberE @1652 DATA
    _ZN4aubo5robot6common14RobotTeachMove4SwapEPS2_ @1653
    _ZN4aubo5robot6common14RobotTeachMove5ClearEv @1654
    _ZN4aubo5robot6common14RobotTeachMove8CopyFromERKN6google8protobuf7MessageE @1655
    _ZN4aubo5robot6common14RobotTeachMove8CopyFromERKS2_ @1656
    _ZN4aubo5robot6common14RobotTeachMove9MergeFromERKN6google8protobuf7MessageE @1657
    _ZN4aubo5robot6common14RobotTeachMove9MergeFromERKS2_ @1658
    _ZN4aubo5robot6common14RobotTeachMoveC1ERKS2_ @1659
    _ZN4aubo5robot6common14RobotTeachMoveC1Ev @1660
    _ZN4aubo5robot6common14RobotTeachMoveC2ERKS2_ @1661
    _ZN4aubo5robot6common14RobotTeachMoveC2Ev @1662
    _ZN4aubo5robot6common14RobotTeachMoveD0Ev @1663
    _ZN4aubo5robot6common14RobotTeachMoveD1Ev @1664
    _ZN4aubo5robot6common14RobotTeachMoveD2Ev @1665
    _ZN4aubo5robot6common14arrivalAhead_t10SharedCtorEv @1666
    _ZN4aubo5robot6common14arrivalAhead_t10SharedDtorEv @1667
    _ZN4aubo5robot6common14arrivalAhead_t10descriptorEv @1668
    _ZN4aubo5robot6common14arrivalAhead_t16default_instanceEv @1669
    _ZN4aubo5robot6common14arrivalAhead_t17default_instance_E @1670 DATA
    _ZN4aubo5robot6common14arrivalAhead_t21InitAsDefaultInstanceEv @1671
    _ZN4aubo5robot6common14arrivalAhead_t27MergePartialFromCodedStreamEPN6google8protobuf2io16CodedInputStreamE @1672
    _ZN4aubo5robot6common14arrivalAhead_t27kArrivalAheadThrFieldNumberE @1673 DATA
    _ZN4aubo5robot6common14arrivalAhead_t28kArrivalAheadStatFieldNumberE @1674 DATA
    _ZN4aubo5robot6common14arrivalAhead_t4SwapEPS2_ @1675
    _ZN4aubo5robot6common14arrivalAhead_t5ClearEv @1676
    _ZN4aubo5robot6common14arrivalAhead_t8CopyFromERKN6google8protobuf7MessageE @1677
    _ZN4aubo5robot6common14arrivalAhead_t8CopyFromERKS2_ @1678
    _ZN4aubo5robot6common14arrivalAhead_t9MergeFromERKN6google8protobuf7MessageE @1679
    _ZN4aubo5robot6common14arrivalAhead_t9MergeFromERKS2_ @1680
    _ZN4aubo5robot6common14arrivalAhead_tC1ERKS2_ @1681
    _ZN4aubo5robot6common14arrivalAhead_tC1Ev @1682
    _ZN4aubo5robot6common14arrivalAhead_tC2ERKS2_ @1683
    _ZN4aubo5robot6common14arrivalAhead_tC2Ev @1684
    _ZN4aubo5robot6common14arrivalAhead_tD0Ev @1685
    _ZN4aubo5robot6common14arrivalAhead_tD1Ev @1686
    _ZN4aubo5robot6common14arrivalAhead_tD2Ev @1687
    _ZN4aubo5robot6common14cartesianOri_U10SharedCtorEv @1688
    _ZN4aubo5robot6common14cartesianOri_U10SharedDtorEv @1689
    _ZN4aubo5robot6common14cartesianOri_U10descriptorEv @1690
    _ZN4aubo5robot6common14cartesianOri_U16default_instanceEv @1691
    _ZN4aubo5robot6common14cartesianOri_U17default_instance_E @1692 DATA
    _ZN4aubo5robot6common14cartesianOri_U21InitAsDefaultInstanceEv @1693
    _ZN4aubo5robot6common14cartesianOri_U23kOrientationFieldNumberE @1694 DATA
    _ZN4aubo5robot6common14cartesianOri_U27MergePartialFromCodedStreamEPN6google8protobuf2io16CodedInputStreamE @1695
    _ZN4aubo5robot6common14cartesianOri_U28kQuaternionVectorFieldNumberE @1696 DATA
    _ZN4aubo5robot6common14cartesianOri_U4SwapEPS2_ @1697
    _ZN4aubo5robot6common14cartesianOri_U5ClearEv @1698
    _ZN4aubo5robot6common14cartesianOri_U8CopyFromERKN6google8protobuf7MessageE @1699
    _ZN4aubo5robot6common14cartesianOri_U8CopyFromERKS2_ @1700
    _ZN4aubo5robot6common14cartesianOri_U9MergeFromERKN6google8protobuf7MessageE @1701
    _ZN4aubo5robot6common14cartesianOri_U9MergeFromERKS2_ @1702
    _ZN4aubo5robot6common14cartesianOri_UC1ERKS2_ @1703
    _ZN4aubo5robot6common14cartesianOri_UC1Ev @1704
    _ZN4aubo5robot6common14cartesianOri_UC2ERKS2_ @1705
    _ZN4aubo5robot6common14cartesianOri_UC2Ev @1706
    _ZN4aubo5robot6common14cartesianOri_UD0Ev @1707
    _ZN4aubo5robot6common14cartesianOri_UD1Ev @1708
    _ZN4aubo5robot6common14cartesianOri_UD2Ev @1709
    _ZN4aubo5robot6common14cartesianPos_U10SharedCtorEv @1710
    _ZN4aubo5robot6common14cartesianPos_U10SharedDtorEv @1711
    _ZN4aubo5robot6common14cartesianPos_U10descriptorEv @1712
    _ZN4aubo5robot6common14cartesianPos_U16default_instanceEv @1713
    _ZN4aubo5robot6common14cartesianPos_U17default_instance_E @1714 DATA
    _ZN4aubo5robot6common14cartesianPos_U20kPositionFieldNumberE @1715 DATA
    _ZN4aubo5robot6common14cartesianPos_U21InitAsDefaultInstanceEv @1716
    _ZN4aubo5robot6common14cartesianPos_U26kPositionVectorFieldNumberE @1717 DATA
    _ZN4aubo5robot6common14cartesianPos_U27MergePartialFromCodedStreamEPN6google8protobuf2io16CodedInputStreamE @1718
    _ZN4aubo5robot6common14cartesianPos_U4SwapEPS2_ @1719
    _ZN4aubo5robot6common14cartesianPos_U5ClearEv @1720
    _ZN4aubo5robot6common14cartesianPos_U8CopyFromERKN6google8protobuf7MessageE @1721
    _ZN4aubo5robot6common14cartesianPos_U8CopyFromERKS2_ @1722
    _ZN4aubo5robot6common14cartesianPos_U9MergeFromERKN6google8protobuf7MessageE @1723
    _ZN4aubo5robot6common14cartesianPos_U9MergeFromERKS2_ @1724
    _ZN4aubo5robot6common14cartesianPos_UC1ERKS2_ @1725
    _ZN4aubo5robot6common14cartesianPos_UC1Ev @1726
    _ZN4aubo5robot6common14cartesianPos_UC2ERKS2_ @1727
    _ZN4aubo5robot6common14cartesianPos_UC2Ev @1728
    _ZN4aubo5robot6common14cartesianPos_UD0Ev @1729
    _ZN4aubo5robot6common14cartesianPos_UD1Ev @1730
    _ZN4aubo5robot6common14cartesianPos_UD2Ev @1731
    _ZN4aubo5robot6common14relativeMove_t10SharedCtorEv @1732
    _ZN4aubo5robot6common14relativeMove_t10SharedDtorEv @1733
    _ZN4aubo5robot6common14relativeMove_t10descriptorEv @1734
    _ZN4aubo5robot6common14relativeMove_t15kEnaFieldNumberE @1735 DATA
    _ZN4aubo5robot6common14relativeMove_t16default_instanceEv @1736
    _ZN4aubo5robot6common14relativeMove_t17default_instance_E @1737 DATA
    _ZN4aubo5robot6common14relativeMove_t21InitAsDefaultInstanceEv @1738
    _ZN4aubo5robot6common14relativeMove_t27MergePartialFromCodedStreamEPN6google8protobuf2io16CodedInputStreamE @1739
    _ZN4aubo5robot6common14relativeMove_t28kRelativePositionFieldNumberE @1740 DATA
    _ZN4aubo5robot6common14relativeMove_t31kRelativeOrientationFieldNumberE @1741 DATA
    _ZN4aubo5robot6common14relativeMove_t4SwapEPS2_ @1742
    _ZN4aubo5robot6common14relativeMove_t5ClearEv @1743
    _ZN4aubo5robot6common14relativeMove_t8CopyFromERKN6google8protobuf7MessageE @1744
    _ZN4aubo5robot6common14relativeMove_t8CopyFromERKS2_ @1745
    _ZN4aubo5robot6common14relativeMove_t9MergeFromERKN6google8protobuf7MessageE @1746
    _ZN4aubo5robot6common14relativeMove_t9MergeFromERKS2_ @1747
    _ZN4aubo5robot6common14relativeMove_tC1ERKS2_ @1748
    _ZN4aubo5robot6common14relativeMove_tC1Ev @1749
    _ZN4aubo5robot6common14relativeMove_tC2ERKS2_ @1750
    _ZN4aubo5robot6common14relativeMove_tC2Ev @1751
    _ZN4aubo5robot6common14relativeMove_tD0Ev @1752
    _ZN4aubo5robot6common14relativeMove_tD1Ev @1753
    _ZN4aubo5robot6common14relativeMove_tD2Ev @1754
    _ZN4aubo5robot6common15ProtoJointAngle10SharedCtorEv @1755
    _ZN4aubo5robot6common15ProtoJointAngle10SharedDtorEv @1756
    _ZN4aubo5robot6common15ProtoJointAngle10descriptorEv @1757
    _ZN4aubo5robot6common15ProtoJointAngle16default_instanceEv @1758
    _ZN4aubo5robot6common15ProtoJointAngle17default_instance_E @1759 DATA
    _ZN4aubo5robot6common15ProtoJointAngle18kJoint1FieldNumberE @1760 DATA
    _ZN4aubo5robot6common15ProtoJointAngle18kJoint2FieldNumberE @1761 DATA
    _ZN4aubo5robot6common15ProtoJointAngle18kJoint3FieldNumberE @1762 DATA
    _ZN4aubo5robot6common15ProtoJointAngle18kJoint4FieldNumberE @1763 DATA
    _ZN4aubo5robot6common15ProtoJointAngle18kJoint5FieldNumberE @1764 DATA
    _ZN4aubo5robot6common15ProtoJointAngle18kJoint6FieldNumberE @1765 DATA
    _ZN4aubo5robot6common15ProtoJointAngle21InitAsDefaultInstanceEv @1766
    _ZN4aubo5robot6common15ProtoJointAngle27MergePartialFromCodedStreamEPN6google8protobuf2io16CodedInputStreamE @1767
    _ZN4aubo5robot6common15ProtoJointAngle4SwapEPS2_ @1768
    _ZN4aubo5robot6common15ProtoJointAngle5ClearEv @1769
    _ZN4aubo5robot6common15ProtoJointAngle8CopyFromERKN6google8protobuf7MessageE @1770
    _ZN4aubo5robot6common15ProtoJointAngle8CopyFromERKS2_ @1771
    _ZN4aubo5robot6common15ProtoJointAngle9MergeFromERKN6google8protobuf7MessageE @1772
    _ZN4aubo5robot6common15ProtoJointAngle9MergeFromERKS2_ @1773
    _ZN4aubo5robot6common15ProtoJointAngleC1ERKS2_ @1774
    _ZN4aubo5robot6common15ProtoJointAngleC1Ev @1775
    _ZN4aubo5robot6common15ProtoJointAngleC2ERKS2_ @1776
    _ZN4aubo5robot6common15ProtoJointAngleC2Ev @1777
    _ZN4aubo5robot6common15ProtoJointAngleD0Ev @1778
    _ZN4aubo5robot6common15ProtoJointAngleD1Ev @1779
    _ZN4aubo5robot6common15ProtoJointAngleD2Ev @1780
    _ZN4aubo5robot6common16ProtoJointStatus10SharedCtorEv @1781
    _ZN4aubo5robot6common16ProtoJointStatus10SharedDtorEv @1782
    _ZN4aubo5robot6common16ProtoJointStatus10descriptorEv @1783
    _ZN4aubo5robot6common16ProtoJointStatus16default_instanceEv @1784
    _ZN4aubo5robot6common16ProtoJointStatus17default_instance_E @1785 DATA
    _ZN4aubo5robot6common16ProtoJointStatus21InitAsDefaultInstanceEv @1786
    _ZN4aubo5robot6common16ProtoJointStatus21kJointPosJFieldNumberE @1787 DATA
    _ZN4aubo5robot6common16ProtoJointStatus23kJointCurVolFieldNumberE @1788 DATA
    _ZN4aubo5robot6common16ProtoJointStatus24kJointCurTempFieldNumberE @1789 DATA
    _ZN4aubo5robot6common16ProtoJointStatus24kJointTagPosJFieldNumberE @1790 DATA
    _ZN4aubo5robot6common16ProtoJointStatus25kJointCurrentIFieldNumberE @1791 DATA
    _ZN4aubo5robot6common16ProtoJointStatus25kJointErrorNumFieldNumberE @1792 DATA
    _ZN4aubo5robot6common16ProtoJointStatus26kJointSpeedMotoFieldNumberE @1793 DATA
    _ZN4aubo5robot6common16ProtoJointStatus27MergePartialFromCodedStreamEPN6google8protobuf2io16CodedInputStreamE @1794
    _ZN4aubo5robot6common16ProtoJointStatus28kJointTagCurrentIFieldNumberE @1795 DATA
    _ZN4aubo5robot6common16ProtoJointStatus29kJointTagSpeedMotoFieldNumberE @1796 DATA
    _ZN4aubo5robot6common16ProtoJointStatus4SwapEPS2_ @1797
    _ZN4aubo5robot6common16ProtoJointStatus5ClearEv @1798
    _ZN4aubo5robot6common16ProtoJointStatus8CopyFromERKN6google8protobuf7MessageE @1799
    _ZN4aubo5robot6common16ProtoJointStatus8CopyFromERKS2_ @1800
    _ZN4aubo5robot6common16ProtoJointStatus9MergeFromERKN6google8protobuf7MessageE @1801
    _ZN4aubo5robot6common16ProtoJointStatus9MergeFromERKS2_ @1802
    _ZN4aubo5robot6common16ProtoJointStatusC1ERKS2_ @1803
    _ZN4aubo5robot6common16ProtoJointStatusC1Ev @1804
    _ZN4aubo5robot6common16ProtoJointStatusC2ERKS2_ @1805
    _ZN4aubo5robot6common16ProtoJointStatusC2Ev @1806
    _ZN4aubo5robot6common16ProtoJointStatusD0Ev @1807
    _ZN4aubo5robot6common16ProtoJointStatusD1Ev @1808
    _ZN4aubo5robot6common16ProtoJointStatusD2Ev @1809
    _ZN4aubo5robot6common16RobotJointOffset10SharedCtorEv @1810
    _ZN4aubo5robot6common16RobotJointOffset10SharedDtorEv @1811
    _ZN4aubo5robot6common16RobotJointOffset10descriptorEv @1812
    _ZN4aubo5robot6common16RobotJointOffset16default_instanceEv @1813
    _ZN4aubo5robot6common16RobotJointOffset17default_instance_E @1814 DATA
    _ZN4aubo5robot6common16RobotJointOffset18kJoint1FieldNumberE @1815 DATA
    _ZN4aubo5robot6common16RobotJointOffset18kJoint2FieldNumberE @1816 DATA
    _ZN4aubo5robot6common16RobotJointOffset18kJoint3FieldNumberE @1817 DATA
    _ZN4aubo5robot6common16RobotJointOffset18kJoint4FieldNumberE @1818 DATA
    _ZN4aubo5robot6common16RobotJointOffset18kJoint5FieldNumberE @1819 DATA
    _ZN4aubo5robot6common16RobotJointOffset18kJoint6FieldNumberE @1820 DATA
    _ZN4aubo5robot6common16RobotJointOffset21InitAsDefaultInstanceEv @1821
    _ZN4aubo5robot6common16RobotJointOffset27MergePartialFromCodedStreamEPN6google8protobuf2io16CodedInputStreamE @1822
    _ZN4aubo5robot6common16RobotJointOffset4SwapEPS2_ @1823
    _ZN4aubo5robot6common16RobotJointOffset5ClearEv @1824
    _ZN4aubo5robot6common16RobotJointOffset8CopyFromERKN6google8protobuf7MessageE @1825
    _ZN4aubo5robot6common16RobotJointOffset8CopyFromERKS2_ @1826
    _ZN4aubo5robot6common16RobotJointOffset9MergeFromERKN6google8protobuf7MessageE @1827
    _ZN4aubo5robot6common16RobotJointOffset9MergeFromERKS2_ @1828
    _ZN4aubo5robot6common16RobotJointOffsetC1ERKS2_ @1829
    _ZN4aubo5robot6common16RobotJointOffsetC1Ev @1830
    _ZN4aubo5robot6common16RobotJointOffsetC2ERKS2_ @1831
    _ZN4aubo5robot6common16RobotJointOffsetC2Ev @1832
    _ZN4aubo5robot6common16RobotJointOffsetD0Ev @1833
    _ZN4aubo5robot6common16RobotJointOffsetD1Ev @1834
    _ZN4aubo5robot6common16RobotJointOffsetD2Ev @1835
    _ZN4aubo5robot6common16RobotMoveProfile10SharedCtorEv @1836
    _ZN4aubo5robot6common16RobotMoveProfile10SharedDtorEv @1837
    _ZN4aubo5robot6common16RobotMoveProfile10descriptorEv @1838
    _ZN4aubo5robot6common16RobotMoveProfile16default_instanceEv @1839
    _ZN4aubo5robot6common16RobotMoveProfile17default_instance_E @1840 DATA
    _ZN4aubo5robot6common16RobotMoveProfile18kMaxAccFieldNumberE @1841 DATA
    _ZN4aubo5robot6common16RobotMoveProfile19kMaxVelcFieldNumberE @1842 DATA
    _ZN4aubo5robot6common16RobotMoveProfile20kMoveModeFieldNumberE @1843 DATA
    _ZN4aubo5robot6common16RobotMoveProfile21InitAsDefaultInstanceEv @1844
    _ZN4aubo5robot6common16RobotMoveProfile21kTeachModeFieldNumberE @1845 DATA
    _ZN4aubo5robot6common16RobotMoveProfile21kToolTrackFieldNumberE @1846 DATA
    _ZN4aubo5robot6common16RobotMoveProfile23kBlendRadiusFieldNumberE @1847 DATA
    _ZN4aubo5robot6common16RobotMoveProfile23kSubMoveModeFieldNumberE @1848 DATA
    _ZN4aubo5robot6common16RobotMoveProfile24kArrivalAheadFieldNumberE @1849 DATA
    _ZN4aubo5robot6common16RobotMoveProfile24kEnableIterIkFieldNumberE @1850 DATA
    _ZN4aubo5robot6common16RobotMoveProfile24kRelativeMoveFieldNumberE @1851 DATA
    _ZN4aubo5robot6common16RobotMoveProfile27MergePartialFromCodedStreamEPN6google8protobuf2io16CodedInputStreamE @1852
    _ZN4aubo5robot6common16RobotMoveProfile29kCircularLoopTimesFieldNumberE @1853 DATA
    _ZN4aubo5robot6common16RobotMoveProfile29kToolInEndPositionFieldNumberE @1854 DATA
    _ZN4aubo5robot6common16RobotMoveProfile32kToolInEndOrientationFieldNumberE @1855 DATA
    _ZN4aubo5robot6common16RobotMoveProfile4SwapEPS2_ @1856
    _ZN4aubo5robot6common16RobotMoveProfile5ClearEv @1857
    _ZN4aubo5robot6common16RobotMoveProfile8CopyFromERKN6google8protobuf7MessageE @1858
    _ZN4aubo5robot6common16RobotMoveProfile8CopyFromERKS2_ @1859
    _ZN4aubo5robot6common16RobotMoveProfile9MergeFromERKN6google8protobuf7MessageE @1860
    _ZN4aubo5robot6common16RobotMoveProfile9MergeFromERKS2_ @1861
    _ZN4aubo5robot6common16RobotMoveProfileC1ERKS2_ @1862
    _ZN4aubo5robot6common16RobotMoveProfileC1Ev @1863
    _ZN4aubo5robot6common16RobotMoveProfileC2ERKS2_ @1864
    _ZN4aubo5robot6common16RobotMoveProfileC2Ev @1865
    _ZN4aubo5robot6common16RobotMoveProfileD0Ev @1866
    _ZN4aubo5robot6common16RobotMoveProfileD1Ev @1867
    _ZN4aubo5robot6common16RobotMoveProfileD2Ev @1868
    _ZN4aubo5robot6common17ToolDynamicsParam10SharedCtorEv @1869
    _ZN4aubo5robot6common17ToolDynamicsParam10SharedDtorEv @1870
    _ZN4aubo5robot6common17ToolDynamicsParam10descriptorEv @1871
    _ZN4aubo5robot6common17ToolDynamicsParam16default_instanceEv @1872
    _ZN4aubo5robot6common17ToolDynamicsParam17default_instance_E @1873 DATA
    _ZN4aubo5robot6common17ToolDynamicsParam19kPayloadFieldNumberE @1874 DATA
    _ZN4aubo5robot6common17ToolDynamicsParam21InitAsDefaultInstanceEv @1875
    _ZN4aubo5robot6common17ToolDynamicsParam21kPositionXFieldNumberE @1876 DATA
    _ZN4aubo5robot6common17ToolDynamicsParam21kPositionYFieldNumberE @1877 DATA
    _ZN4aubo5robot6common17ToolDynamicsParam21kPositionZFieldNumberE @1878 DATA
    _ZN4aubo5robot6common17ToolDynamicsParam23kToolInertiaFieldNumberE @1879 DATA
    _ZN4aubo5robot6common17ToolDynamicsParam27MergePartialFromCodedStreamEPN6google8protobuf2io16CodedInputStreamE @1880
    _ZN4aubo5robot6common17ToolDynamicsParam4SwapEPS2_ @1881
    _ZN4aubo5robot6common17ToolDynamicsParam5ClearEv @1882
    _ZN4aubo5robot6common17ToolDynamicsParam8CopyFromERKN6google8protobuf7MessageE @1883
    _ZN4aubo5robot6common17ToolDynamicsParam8CopyFromERKS2_ @1884
    _ZN4aubo5robot6common17ToolDynamicsParam9MergeFromERKN6google8protobuf7MessageE @1885
    _ZN4aubo5robot6common17ToolDynamicsParam9MergeFromERKS2_ @1886
    _ZN4aubo5robot6common17ToolDynamicsParamC1ERKS2_ @1887
    _ZN4aubo5robot6common17ToolDynamicsParamC1Ev @1888
    _ZN4aubo5robot6common17ToolDynamicsParamC2ERKS2_ @1889
    _ZN4aubo5robot6common17ToolDynamicsParamC2Ev @1890
    _ZN4aubo5robot6common17ToolDynamicsParamD0Ev @1891
    _ZN4aubo5robot6common17ToolDynamicsParamD1Ev @1892
    _ZN4aubo5robot6common17ToolDynamicsParamD2Ev @1893
    _ZN4aubo5robot6common18ProtoToolInEndDesc10SharedCtorEv @1894
    _ZN4aubo5robot6common18ProtoToolInEndDesc10SharedDtorEv @1895
    _ZN4aubo5robot6common18ProtoToolInEndDesc10descriptorEv @1896
    _ZN4aubo5robot6common18ProtoToolInEndDesc16default_instanceEv @1897
    _ZN4aubo5robot6common18ProtoToolInEndDesc17default_instance_E @1898 DATA
    _ZN4aubo5robot6common18ProtoToolInEndDesc21InitAsDefaultInstanceEv @1899
    _ZN4aubo5robot6common18ProtoToolInEndDesc27MergePartialFromCodedStreamEPN6google8protobuf2io16CodedInputStreamE @1900
    _ZN4aubo5robot6common18ProtoToolInEndDesc29kToolInEndPositionFieldNumberE @1901 DATA
    _ZN4aubo5robot6common18ProtoToolInEndDesc32kToolInEndOrientationFieldNumberE @1902 DATA
    _ZN4aubo5robot6common18ProtoToolInEndDesc4SwapEPS2_ @1903
    _ZN4aubo5robot6common18ProtoToolInEndDesc5ClearEv @1904
    _ZN4aubo5robot6common18ProtoToolInEndDesc8CopyFromERKN6google8protobuf7MessageE @1905
    _ZN4aubo5robot6common18ProtoToolInEndDesc8CopyFromERKS2_ @1906
    _ZN4aubo5robot6common18ProtoToolInEndDesc9MergeFromERKN6google8protobuf7MessageE @1907
    _ZN4aubo5robot6common18ProtoToolInEndDesc9MergeFromERKS2_ @1908
    _ZN4aubo5robot6common18ProtoToolInEndDescC1ERKS2_ @1909
    _ZN4aubo5robot6common18ProtoToolInEndDescC1Ev @1910
    _ZN4aubo5robot6common18ProtoToolInEndDescC2ERKS2_ @1911
    _ZN4aubo5robot6common18ProtoToolInEndDescC2Ev @1912
    _ZN4aubo5robot6common18ProtoToolInEndDescD0Ev @1913
    _ZN4aubo5robot6common18ProtoToolInEndDescD1Ev @1914
    _ZN4aubo5robot6common18ProtoToolInEndDescD2Ev @1915
    _ZN4aubo5robot6common19RobotCommonResponse10SharedCtorEv @1916
    _ZN4aubo5robot6common19RobotCommonResponse10SharedDtorEv @1917
    _ZN4aubo5robot6common19RobotCommonResponse10descriptorEv @1918
    _ZN4aubo5robot6common19RobotCommonResponse16default_instanceEv @1919
    _ZN4aubo5robot6common19RobotCommonResponse17default_instance_E @1920 DATA
    _ZN4aubo5robot6common19RobotCommonResponse20kErrorMsgFieldNumberE @1921 DATA
    _ZN4aubo5robot6common19RobotCommonResponse21InitAsDefaultInstanceEv @1922
    _ZN4aubo5robot6common19RobotCommonResponse21kErrorCodeFieldNumberE @1923 DATA
    _ZN4aubo5robot6common19RobotCommonResponse27MergePartialFromCodedStreamEPN6google8protobuf2io16CodedInputStreamE @1924
    _ZN4aubo5robot6common19RobotCommonResponse4SwapEPS2_ @1925
    _ZN4aubo5robot6common19RobotCommonResponse5ClearEv @1926
    _ZN4aubo5robot6common19RobotCommonResponse8CopyFromERKN6google8protobuf7MessageE @1927
    _ZN4aubo5robot6common19RobotCommonResponse8CopyFromERKS2_ @1928
    _ZN4aubo5robot6common19RobotCommonResponse9MergeFromERKN6google8protobuf7MessageE @1929
    _ZN4aubo5robot6common19RobotCommonResponse9MergeFromERKS2_ @1930
    _ZN4aubo5robot6common19RobotCommonResponseC1ERKS2_ @1931
    _ZN4aubo5robot6common19RobotCommonResponseC1Ev @1932
    _ZN4aubo5robot6common19RobotCommonResponseC2ERKS2_ @1933
    _ZN4aubo5robot6common19RobotCommonResponseC2Ev @1934
    _ZN4aubo5robot6common19RobotCommonResponseD0Ev @1935
    _ZN4aubo5robot6common19RobotCommonResponseD1Ev @1936
    _ZN4aubo5robot6common19RobotCommonResponseD2Ev @1937
    _ZN4aubo5robot6common19ToolKinematicsParam10SharedCtorEv @1938
    _ZN4aubo5robot6common19ToolKinematicsParam10SharedDtorEv @1939
    _ZN4aubo5robot6common19ToolKinematicsParam10descriptorEv @1940
    _ZN4aubo5robot6common19ToolKinematicsParam16default_instanceEv @1941
    _ZN4aubo5robot6common19ToolKinematicsParam17default_instance_E @1942 DATA
    _ZN4aubo5robot6common19ToolKinematicsParam19kToolOriFieldNumberE @1943 DATA
    _ZN4aubo5robot6common19ToolKinematicsParam21InitAsDefaultInstanceEv @1944
    _ZN4aubo5robot6common19ToolKinematicsParam24kToolPositionFieldNumberE @1945 DATA
    _ZN4aubo5robot6common19ToolKinematicsParam27MergePartialFromCodedStreamEPN6google8protobuf2io16CodedInputStreamE @1946
    _ZN4aubo5robot6common19ToolKinematicsParam4SwapEPS2_ @1947
    _ZN4aubo5robot6common19ToolKinematicsParam5ClearEv @1948
    _ZN4aubo5robot6common19ToolKinematicsParam8CopyFromERKN6google8protobuf7MessageE @1949
    _ZN4aubo5robot6common19ToolKinematicsParam8CopyFromERKS2_ @1950
    _ZN4aubo5robot6common19ToolKinematicsParam9MergeFromERKN6google8protobuf7MessageE @1951
    _ZN4aubo5robot6common19ToolKinematicsParam9MergeFromERKS2_ @1952
    _ZN4aubo5robot6common19ToolKinematicsParamC1ERKS2_ @1953
    _ZN4aubo5robot6common19ToolKinematicsParamC1Ev @1954
    _ZN4aubo5robot6common19ToolKinematicsParamC2ERKS2_ @1955
    _ZN4aubo5robot6common19ToolKinematicsParamC2Ev @1956
    _ZN4aubo5robot6common19ToolKinematicsParamD0Ev @1957
    _ZN4aubo5robot6common19ToolKinematicsParamD1Ev @1958
    _ZN4aubo5robot6common19ToolKinematicsParamD2Ev @1959
    _ZN4aubo5robot6common21ProtoOrpeSafetyStatus10SharedCtorEv @1960
    _ZN4aubo5robot6common21ProtoOrpeSafetyStatus10SharedDtorEv @1961
    _ZN4aubo5robot6common21ProtoOrpeSafetyStatus10descriptorEv @1962
    _ZN4aubo5robot6common21ProtoOrpeSafetyStatus16default_instanceEv @1963
    _ZN4aubo5robot6common21ProtoOrpeSafetyStatus17default_instance_E @1964 DATA
    _ZN4aubo5robot6common21ProtoOrpeSafetyStatus20kOrpeStopFieldNumberE @1965 DATA
    _ZN4aubo5robot6common21ProtoOrpeSafetyStatus21InitAsDefaultInstanceEv @1966
    _ZN4aubo5robot6common21ProtoOrpeSafetyStatus21kOrpeErrorFieldNumberE @1967 DATA
    _ZN4aubo5robot6common21ProtoOrpeSafetyStatus21kOrpePauseFieldNumberE @1968 DATA
    _ZN4aubo5robot6common21ProtoOrpeSafetyStatus27MergePartialFromCodedStreamEPN6google8protobuf2io16CodedInputStreamE @1969
    _ZN4aubo5robot6common21ProtoOrpeSafetyStatus28kReducedModeErrorFieldNumberE @1970 DATA
    _ZN4aubo5robot6common21ProtoOrpeSafetyStatus31kSystemEmergencyStopFieldNumberE @1971 DATA
    _ZN4aubo5robot6common21ProtoOrpeSafetyStatus32kSafetyguardResetSuccFieldNumberE @1972 DATA
    _ZN4aubo5robot6common21ProtoOrpeSafetyStatus4SwapEPS2_ @1973
    _ZN4aubo5robot6common21ProtoOrpeSafetyStatus5ClearEv @1974
    _ZN4aubo5robot6common21ProtoOrpeSafetyStatus8CopyFromERKN6google8protobuf7MessageE @1975
    _ZN4aubo5robot6common21ProtoOrpeSafetyStatus8CopyFromERKS2_ @1976
    _ZN4aubo5robot6common21ProtoOrpeSafetyStatus9MergeFromERKN6google8protobuf7MessageE @1977
    _ZN4aubo5robot6common21ProtoOrpeSafetyStatus9MergeFromERKS2_ @1978
    _ZN4aubo5robot6common21ProtoOrpeSafetyStatusC1ERKS2_ @1979
    _ZN4aubo5robot6common21ProtoOrpeSafetyStatusC1Ev @1980
    _ZN4aubo5robot6common21ProtoOrpeSafetyStatusC2ERKS2_ @1981
    _ZN4aubo5robot6common21ProtoOrpeSafetyStatusC2Ev @1982
    _ZN4aubo5robot6common21ProtoOrpeSafetyStatusD0Ev @1983
    _ZN4aubo5robot6common21ProtoOrpeSafetyStatusD1Ev @1984
    _ZN4aubo5robot6common21ProtoOrpeSafetyStatusD2Ev @1985
    _ZN4aubo5robot6common22ProtoRobotSafetyConfig10SharedCtorEv @1986
    _ZN4aubo5robot6common22ProtoRobotSafetyConfig10SharedDtorEv @1987
    _ZN4aubo5robot6common22ProtoRobotSafetyConfig10descriptorEv @1988
    _ZN4aubo5robot6common22ProtoRobotSafetyConfig16default_instanceEv @1989
    _ZN4aubo5robot6common22ProtoRobotSafetyConfig17default_instance_E @1990 DATA
    _ZN4aubo5robot6common22ProtoRobotSafetyConfig21InitAsDefaultInstanceEv @1991
    _ZN4aubo5robot6common22ProtoRobotSafetyConfig27MergePartialFromCodedStreamEPN6google8protobuf2io16CodedInputStreamE @1992
    _ZN4aubo5robot6common22ProtoRobotSafetyConfig35kRobotReducedConfigPowerFieldNumberE @1993 DATA
    _ZN4aubo5robot6common22ProtoRobotSafetyConfig37kRobotSafeguradResetConfigFieldNumberE @1994 DATA
    _ZN4aubo5robot6common22ProtoRobotSafetyConfig38kRobotOperationalModeConfigFieldNumberE @1995 DATA
    _ZN4aubo5robot6common22ProtoRobotSafetyConfig38kRobotReducedConfigMomentumFieldNumberE @1996 DATA
    _ZN4aubo5robot6common22ProtoRobotSafetyConfig38kRobotReducedConfigTcpForceFieldNumberE @1997 DATA
    _ZN4aubo5robot6common22ProtoRobotSafetyConfig38kRobotReducedConfigTcpSpeedFieldNumberE @1998 DATA
    _ZN4aubo5robot6common22ProtoRobotSafetyConfig40kRobotReducedConfigJointSpeedFieldNumberE @1999 DATA
    _ZN4aubo5robot6common22ProtoRobotSafetyConfig4SwapEPS2_ @2000
    _ZN4aubo5robot6common22ProtoRobotSafetyConfig5ClearEv @2001
    _ZN4aubo5robot6common22ProtoRobotSafetyConfig8CopyFromERKN6google8protobuf7MessageE @2002
    _ZN4aubo5robot6common22ProtoRobotSafetyConfig8CopyFromERKS2_ @2003
    _ZN4aubo5robot6common22ProtoRobotSafetyConfig9MergeFromERKN6google8protobuf7MessageE @2004
    _ZN4aubo5robot6common22ProtoRobotSafetyConfig9MergeFromERKS2_ @2005
    _ZN4aubo5robot6common22ProtoRobotSafetyConfigC1ERKS2_ @2006
    _ZN4aubo5robot6common22ProtoRobotSafetyConfigC1Ev @2007
    _ZN4aubo5robot6common22ProtoRobotSafetyConfigC2ERKS2_ @2008
    _ZN4aubo5robot6common22ProtoRobotSafetyConfigC2Ev @2009
    _ZN4aubo5robot6common22ProtoRobotSafetyConfigD0Ev @2010
    _ZN4aubo5robot6common22ProtoRobotSafetyConfigD1Ev @2011
    _ZN4aubo5robot6common22ProtoRobotSafetyConfigD2Ev @2012
    _ZN4aubo5robot6common23ProtoJointAngleResponse10SharedCtorEv @2013
    _ZN4aubo5robot6common23ProtoJointAngleResponse10SharedDtorEv @2014
    _ZN4aubo5robot6common23ProtoJointAngleResponse10descriptorEv @2015
    _ZN4aubo5robot6common23ProtoJointAngleResponse16default_instanceEv @2016
    _ZN4aubo5robot6common23ProtoJointAngleResponse17default_instance_E @2017 DATA
    _ZN4aubo5robot6common23ProtoJointAngleResponse21InitAsDefaultInstanceEv @2018
    _ZN4aubo5robot6common23ProtoJointAngleResponse21kErrorInfoFieldNumberE @2019 DATA
    _ZN4aubo5robot6common23ProtoJointAngleResponse22kJointAngleFieldNumberE @2020 DATA
    _ZN4aubo5robot6common23ProtoJointAngleResponse27MergePartialFromCodedStreamEPN6google8protobuf2io16CodedInputStreamE @2021
    _ZN4aubo5robot6common23ProtoJointAngleResponse4SwapEPS2_ @2022
    _ZN4aubo5robot6common23ProtoJointAngleResponse5ClearEv @2023
    _ZN4aubo5robot6common23ProtoJointAngleResponse8CopyFromERKN6google8protobuf7MessageE @2024
    _ZN4aubo5robot6common23ProtoJointAngleResponse8CopyFromERKS2_ @2025
    _ZN4aubo5robot6common23ProtoJointAngleResponse9MergeFromERKN6google8protobuf7MessageE @2026
    _ZN4aubo5robot6common23ProtoJointAngleResponse9MergeFromERKS2_ @2027
    _ZN4aubo5robot6common23ProtoJointAngleResponseC1ERKS2_ @2028
    _ZN4aubo5robot6common23ProtoJointAngleResponseC1Ev @2029
    _ZN4aubo5robot6common23ProtoJointAngleResponseC2ERKS2_ @2030
    _ZN4aubo5robot6common23ProtoJointAngleResponseC2Ev @2031
    _ZN4aubo5robot6common23ProtoJointAngleResponseD0Ev @2032
    _ZN4aubo5robot6common23ProtoJointAngleResponseD1Ev @2033
    _ZN4aubo5robot6common23ProtoJointAngleResponseD2Ev @2034
    _ZN4aubo5robot6common24ProtoRobotMoveFuncResult10SharedCtorEv @2035
    _ZN4aubo5robot6common24ProtoRobotMoveFuncResult10SharedDtorEv @2036
    _ZN4aubo5robot6common24ProtoRobotMoveFuncResult10descriptorEv @2037
    _ZN4aubo5robot6common24ProtoRobotMoveFuncResult15kRetFieldNumberE @2038 DATA
    _ZN4aubo5robot6common24ProtoRobotMoveFuncResult16default_instanceEv @2039
    _ZN4aubo5robot6common24ProtoRobotMoveFuncResult17default_instance_E @2040 DATA
    _ZN4aubo5robot6common24ProtoRobotMoveFuncResult21InitAsDefaultInstanceEv @2041
    _ZN4aubo5robot6common24ProtoRobotMoveFuncResult21kErrorInfoFieldNumberE @2042 DATA
    _ZN4aubo5robot6common24ProtoRobotMoveFuncResult27MergePartialFromCodedStreamEPN6google8protobuf2io16CodedInputStreamE @2043
    _ZN4aubo5robot6common24ProtoRobotMoveFuncResult4SwapEPS2_ @2044
    _ZN4aubo5robot6common24ProtoRobotMoveFuncResult5ClearEv @2045
    _ZN4aubo5robot6common24ProtoRobotMoveFuncResult8CopyFromERKN6google8protobuf7MessageE @2046
    _ZN4aubo5robot6common24ProtoRobotMoveFuncResult8CopyFromERKS2_ @2047
    _ZN4aubo5robot6common24ProtoRobotMoveFuncResult9MergeFromERKN6google8protobuf7MessageE @2048
    _ZN4aubo5robot6common24ProtoRobotMoveFuncResult9MergeFromERKS2_ @2049
    _ZN4aubo5robot6common24ProtoRobotMoveFuncResultC1ERKS2_ @2050
    _ZN4aubo5robot6common24ProtoRobotMoveFuncResultC1Ev @2051
    _ZN4aubo5robot6common24ProtoRobotMoveFuncResultC2ERKS2_ @2052
    _ZN4aubo5robot6common24ProtoRobotMoveFuncResultC2Ev @2053
    _ZN4aubo5robot6common24ProtoRobotMoveFuncResultD0Ev @2054
    _ZN4aubo5robot6common24ProtoRobotMoveFuncResultD1Ev @2055
    _ZN4aubo5robot6common24ProtoRobotMoveFuncResultD2Ev @2056
    _ZN4aubo5robot6common25ProtoResponseRobotDevInfo10SharedCtorEv @2057
    _ZN4aubo5robot6common25ProtoResponseRobotDevInfo10SharedDtorEv @2058
    _ZN4aubo5robot6common25ProtoResponseRobotDevInfo10descriptorEv @2059
    _ZN4aubo5robot6common25ProtoResponseRobotDevInfo16default_instanceEv @2060
    _ZN4aubo5robot6common25ProtoResponseRobotDevInfo17default_instance_E @2061 DATA
    _ZN4aubo5robot6common25ProtoResponseRobotDevInfo19kDevInfoFieldNumberE @2062 DATA
    _ZN4aubo5robot6common25ProtoResponseRobotDevInfo21InitAsDefaultInstanceEv @2063
    _ZN4aubo5robot6common25ProtoResponseRobotDevInfo21kErrorInfoFieldNumberE @2064 DATA
    _ZN4aubo5robot6common25ProtoResponseRobotDevInfo27MergePartialFromCodedStreamEPN6google8protobuf2io16CodedInputStreamE @2065
    _ZN4aubo5robot6common25ProtoResponseRobotDevInfo4SwapEPS2_ @2066
    _ZN4aubo5robot6common25ProtoResponseRobotDevInfo5ClearEv @2067
    _ZN4aubo5robot6common25ProtoResponseRobotDevInfo8CopyFromERKN6google8protobuf7MessageE @2068
    _ZN4aubo5robot6common25ProtoResponseRobotDevInfo8CopyFromERKS2_ @2069
    _ZN4aubo5robot6common25ProtoResponseRobotDevInfo9MergeFromERKN6google8protobuf7MessageE @2070
    _ZN4aubo5robot6common25ProtoResponseRobotDevInfo9MergeFromERKS2_ @2071
    _ZN4aubo5robot6common25ProtoResponseRobotDevInfoC1ERKS2_ @2072
    _ZN4aubo5robot6common25ProtoResponseRobotDevInfoC1Ev @2073
    _ZN4aubo5robot6common25ProtoResponseRobotDevInfoC2ERKS2_ @2074
    _ZN4aubo5robot6common25ProtoResponseRobotDevInfoC2Ev @2075
    _ZN4aubo5robot6common25ProtoResponseRobotDevInfoD0Ev @2076
    _ZN4aubo5robot6common25ProtoResponseRobotDevInfoD1Ev @2077
    _ZN4aubo5robot6common25ProtoResponseRobotDevInfoD2Ev @2078
    _ZN4aubo5robot6common25ProtoResponseRobotDhParam10SharedCtorEv @2079
    _ZN4aubo5robot6common25ProtoResponseRobotDhParam10SharedDtorEv @2080
    _ZN4aubo5robot6common25ProtoResponseRobotDhParam10descriptorEv @2081
    _ZN4aubo5robot6common25ProtoResponseRobotDhParam16default_instanceEv @2082
    _ZN4aubo5robot6common25ProtoResponseRobotDhParam17default_instance_E @2083 DATA
    _ZN4aubo5robot6common25ProtoResponseRobotDhParam19kDhParamFieldNumberE @2084 DATA
    _ZN4aubo5robot6common25ProtoResponseRobotDhParam21InitAsDefaultInstanceEv @2085
    _ZN4aubo5robot6common25ProtoResponseRobotDhParam21kErrorInfoFieldNumberE @2086 DATA
    _ZN4aubo5robot6common25ProtoResponseRobotDhParam21kRobotTypeFieldNumberE @2087 DATA
    _ZN4aubo5robot6common25ProtoResponseRobotDhParam27MergePartialFromCodedStreamEPN6google8protobuf2io16CodedInputStreamE @2088
    _ZN4aubo5robot6common25ProtoResponseRobotDhParam4SwapEPS2_ @2089
    _ZN4aubo5robot6common25ProtoResponseRobotDhParam5ClearEv @2090
    _ZN4aubo5robot6common25ProtoResponseRobotDhParam8CopyFromERKN6google8protobuf7MessageE @2091
    _ZN4aubo5robot6common25ProtoResponseRobotDhParam8CopyFromERKS2_ @2092
    _ZN4aubo5robot6common25ProtoResponseRobotDhParam9MergeFromERKN6google8protobuf7MessageE @2093
    _ZN4aubo5robot6common25ProtoResponseRobotDhParam9MergeFromERKS2_ @2094
    _ZN4aubo5robot6common25ProtoResponseRobotDhParamC1ERKS2_ @2095
    _ZN4aubo5robot6common25ProtoResponseRobotDhParamC1Ev @2096
    _ZN4aubo5robot6common25ProtoResponseRobotDhParamC2ERKS2_ @2097
    _ZN4aubo5robot6common25ProtoResponseRobotDhParamC2Ev @2098
    _ZN4aubo5robot6common25ProtoResponseRobotDhParamD0Ev @2099
    _ZN4aubo5robot6common25ProtoResponseRobotDhParamD1Ev @2100
    _ZN4aubo5robot6common25ProtoResponseRobotDhParamD2Ev @2101
    _ZN4aubo5robot6common26ProtoResponseRobotTcpParam10SharedCtorEv @2102
    _ZN4aubo5robot6common26ProtoResponseRobotTcpParam10SharedDtorEv @2103
    _ZN4aubo5robot6common26ProtoResponseRobotTcpParam10descriptorEv @2104
    _ZN4aubo5robot6common26ProtoResponseRobotTcpParam16default_instanceEv @2105
    _ZN4aubo5robot6common26ProtoResponseRobotTcpParam17default_instance_E @2106 DATA
    _ZN4aubo5robot6common26ProtoResponseRobotTcpParam20kTcpParamFieldNumberE @2107 DATA
    _ZN4aubo5robot6common26ProtoResponseRobotTcpParam21InitAsDefaultInstanceEv @2108
    _ZN4aubo5robot6common26ProtoResponseRobotTcpParam21kErrorInfoFieldNumberE @2109 DATA
    _ZN4aubo5robot6common26ProtoResponseRobotTcpParam27MergePartialFromCodedStreamEPN6google8protobuf2io16CodedInputStreamE @2110
    _ZN4aubo5robot6common26ProtoResponseRobotTcpParam4SwapEPS2_ @2111
    _ZN4aubo5robot6common26ProtoResponseRobotTcpParam5ClearEv @2112
    _ZN4aubo5robot6common26ProtoResponseRobotTcpParam8CopyFromERKN6google8protobuf7MessageE @2113
    _ZN4aubo5robot6common26ProtoResponseRobotTcpParam8CopyFromERKS2_ @2114
    _ZN4aubo5robot6common26ProtoResponseRobotTcpParam9MergeFromERKN6google8protobuf7MessageE @2115
    _ZN4aubo5robot6common26ProtoResponseRobotTcpParam9MergeFromERKS2_ @2116
    _ZN4aubo5robot6common26ProtoResponseRobotTcpParamC1ERKS2_ @2117
    _ZN4aubo5robot6common26ProtoResponseRobotTcpParamC1Ev @2118
    _ZN4aubo5robot6common26ProtoResponseRobotTcpParamC2ERKS2_ @2119
    _ZN4aubo5robot6common26ProtoResponseRobotTcpParamC2Ev @2120
    _ZN4aubo5robot6common26ProtoResponseRobotTcpParamD0Ev @2121
    _ZN4aubo5robot6common26ProtoResponseRobotTcpParamD1Ev @2122
    _ZN4aubo5robot6common26ProtoResponseRobotTcpParamD2Ev @2123
    _ZN4aubo5robot6common28ProtoConveyorTrackValuePoint10SharedCtorEv @2124
    _ZN4aubo5robot6common28ProtoConveyorTrackValuePoint10SharedDtorEv @2125
    _ZN4aubo5robot6common28ProtoConveyorTrackValuePoint10descriptorEv @2126
    _ZN4aubo5robot6common28ProtoConveyorTrackValuePoint15kOriFieldNumberE @2127 DATA
    _ZN4aubo5robot6common28ProtoConveyorTrackValuePoint16default_instanceEv @2128
    _ZN4aubo5robot6common28ProtoConveyorTrackValuePoint17default_instance_E @2129 DATA
    _ZN4aubo5robot6common28ProtoConveyorTrackValuePoint20kPositionFieldNumberE @2130 DATA
    _ZN4aubo5robot6common28ProtoConveyorTrackValuePoint21InitAsDefaultInstanceEv @2131
    _ZN4aubo5robot6common28ProtoConveyorTrackValuePoint21kTimestampFieldNumberE @2132 DATA
    _ZN4aubo5robot6common28ProtoConveyorTrackValuePoint27MergePartialFromCodedStreamEPN6google8protobuf2io16CodedInputStreamE @2133
    _ZN4aubo5robot6common28ProtoConveyorTrackValuePoint4SwapEPS2_ @2134
    _ZN4aubo5robot6common28ProtoConveyorTrackValuePoint5ClearEv @2135
    _ZN4aubo5robot6common28ProtoConveyorTrackValuePoint8CopyFromERKN6google8protobuf7MessageE @2136
    _ZN4aubo5robot6common28ProtoConveyorTrackValuePoint8CopyFromERKS2_ @2137
    _ZN4aubo5robot6common28ProtoConveyorTrackValuePoint9MergeFromERKN6google8protobuf7MessageE @2138
    _ZN4aubo5robot6common28ProtoConveyorTrackValuePoint9MergeFromERKS2_ @2139
    _ZN4aubo5robot6common28ProtoConveyorTrackValuePointC1ERKS2_ @2140
    _ZN4aubo5robot6common28ProtoConveyorTrackValuePointC1Ev @2141
    _ZN4aubo5robot6common28ProtoConveyorTrackValuePointC2ERKS2_ @2142
    _ZN4aubo5robot6common28ProtoConveyorTrackValuePointC2Ev @2143
    _ZN4aubo5robot6common28ProtoConveyorTrackValuePointD0Ev @2144
    _ZN4aubo5robot6common28ProtoConveyorTrackValuePointD1Ev @2145
    _ZN4aubo5robot6common28ProtoConveyorTrackValuePointD2Ev @2146
    _ZN4aubo5robot6common29ProtoResponseOrpeSafetyStatus10SharedCtorEv @2147
    _ZN4aubo5robot6common29ProtoResponseOrpeSafetyStatus10SharedDtorEv @2148
    _ZN4aubo5robot6common29ProtoResponseOrpeSafetyStatus10descriptorEv @2149
    _ZN4aubo5robot6common29ProtoResponseOrpeSafetyStatus16default_instanceEv @2150
    _ZN4aubo5robot6common29ProtoResponseOrpeSafetyStatus17default_instance_E @2151 DATA
    _ZN4aubo5robot6common29ProtoResponseOrpeSafetyStatus21InitAsDefaultInstanceEv @2152
    _ZN4aubo5robot6common29ProtoResponseOrpeSafetyStatus21kErrorInfoFieldNumberE @2153 DATA
    _ZN4aubo5robot6common29ProtoResponseOrpeSafetyStatus24kSafetyStatusFieldNumberE @2154 DATA
    _ZN4aubo5robot6common29ProtoResponseOrpeSafetyStatus27MergePartialFromCodedStreamEPN6google8protobuf2io16CodedInputStreamE @2155
    _ZN4aubo5robot6common29ProtoResponseOrpeSafetyStatus4SwapEPS2_ @2156
    _ZN4aubo5robot6common29ProtoResponseOrpeSafetyStatus5ClearEv @2157
    _ZN4aubo5robot6common29ProtoResponseOrpeSafetyStatus8CopyFromERKN6google8protobuf7MessageE @2158
    _ZN4aubo5robot6common29ProtoResponseOrpeSafetyStatus8CopyFromERKS2_ @2159
    _ZN4aubo5robot6common29ProtoResponseOrpeSafetyStatus9MergeFromERKN6google8protobuf7MessageE @2160
    _ZN4aubo5robot6common29ProtoResponseOrpeSafetyStatus9MergeFromERKS2_ @2161
    _ZN4aubo5robot6common29ProtoResponseOrpeSafetyStatusC1ERKS2_ @2162
    _ZN4aubo5robot6common29ProtoResponseOrpeSafetyStatusC1Ev @2163
    _ZN4aubo5robot6common29ProtoResponseOrpeSafetyStatusC2ERKS2_ @2164
    _ZN4aubo5robot6common29ProtoResponseOrpeSafetyStatusC2Ev @2165
    _ZN4aubo5robot6common29ProtoResponseOrpeSafetyStatusD0Ev @2166
    _ZN4aubo5robot6common29ProtoResponseOrpeSafetyStatusD1Ev @2167
    _ZN4aubo5robot6common29ProtoResponseOrpeSafetyStatusD2Ev @2168
    _ZN4aubo5robot6common30ProtoResponseRobotSafetyConfig10SharedCtorEv @2169
    _ZN4aubo5robot6common30ProtoResponseRobotSafetyConfig10SharedDtorEv @2170
    _ZN4aubo5robot6common30ProtoResponseRobotSafetyConfig10descriptorEv @2171
    _ZN4aubo5robot6common30ProtoResponseRobotSafetyConfig16default_instanceEv @2172
    _ZN4aubo5robot6common30ProtoResponseRobotSafetyConfig17default_instance_E @2173 DATA
    _ZN4aubo5robot6common30ProtoResponseRobotSafetyConfig21InitAsDefaultInstanceEv @2174
    _ZN4aubo5robot6common30ProtoResponseRobotSafetyConfig21kErrorInfoFieldNumberE @2175 DATA
    _ZN4aubo5robot6common30ProtoResponseRobotSafetyConfig24kSafetyConfigFieldNumberE @2176 DATA
    _ZN4aubo5robot6common30ProtoResponseRobotSafetyConfig27MergePartialFromCodedStreamEPN6google8protobuf2io16CodedInputStreamE @2177
    _ZN4aubo5robot6common30ProtoResponseRobotSafetyConfig4SwapEPS2_ @2178
    _ZN4aubo5robot6common30ProtoResponseRobotSafetyConfig5ClearEv @2179
    _ZN4aubo5robot6common30ProtoResponseRobotSafetyConfig8CopyFromERKN6google8protobuf7MessageE @2180
    _ZN4aubo5robot6common30ProtoResponseRobotSafetyConfig8CopyFromERKS2_ @2181
    _ZN4aubo5robot6common30ProtoResponseRobotSafetyConfig9MergeFromERKN6google8protobuf7MessageE @2182
    _ZN4aubo5robot6common30ProtoResponseRobotSafetyConfig9MergeFromERKS2_ @2183
    _ZN4aubo5robot6common30ProtoResponseRobotSafetyConfigC1ERKS2_ @2184
    _ZN4aubo5robot6common30ProtoResponseRobotSafetyConfigC1Ev @2185
    _ZN4aubo5robot6common30ProtoResponseRobotSafetyConfigC2ERKS2_ @2186
    _ZN4aubo5robot6common30ProtoResponseRobotSafetyConfigC2Ev @2187
    _ZN4aubo5robot6common30ProtoResponseRobotSafetyConfigD0Ev @2188
    _ZN4aubo5robot6common30ProtoResponseRobotSafetyConfigD1Ev @2189
    _ZN4aubo5robot6common30ProtoResponseRobotSafetyConfigD2Ev @2190
    _ZN4aubo5robot6common32ProtoRobotAllJointStatusResponse10SharedCtorEv @2191
    _ZN4aubo5robot6common32ProtoRobotAllJointStatusResponse10SharedDtorEv @2192
    _ZN4aubo5robot6common32ProtoRobotAllJointStatusResponse10descriptorEv @2193
    _ZN4aubo5robot6common32ProtoRobotAllJointStatusResponse16default_instanceEv @2194
    _ZN4aubo5robot6common32ProtoRobotAllJointStatusResponse17default_instance_E @2195 DATA
    _ZN4aubo5robot6common32ProtoRobotAllJointStatusResponse21InitAsDefaultInstanceEv @2196
    _ZN4aubo5robot6common32ProtoRobotAllJointStatusResponse21kErrorInfoFieldNumberE @2197 DATA
    _ZN4aubo5robot6common32ProtoRobotAllJointStatusResponse22kJointCountFieldNumberE @2198 DATA
    _ZN4aubo5robot6common32ProtoRobotAllJointStatusResponse23kJointStatusFieldNumberE @2199 DATA
    _ZN4aubo5robot6common32ProtoRobotAllJointStatusResponse27MergePartialFromCodedStreamEPN6google8protobuf2io16CodedInputStreamE @2200
    _ZN4aubo5robot6common32ProtoRobotAllJointStatusResponse4SwapEPS2_ @2201
    _ZN4aubo5robot6common32ProtoRobotAllJointStatusResponse5ClearEv @2202
    _ZN4aubo5robot6common32ProtoRobotAllJointStatusResponse8CopyFromERKN6google8protobuf7MessageE @2203
    _ZN4aubo5robot6common32ProtoRobotAllJointStatusResponse8CopyFromERKS2_ @2204
    _ZN4aubo5robot6common32ProtoRobotAllJointStatusResponse9MergeFromERKN6google8protobuf7MessageE @2205
    _ZN4aubo5robot6common32ProtoRobotAllJointStatusResponse9MergeFromERKS2_ @2206
    _ZN4aubo5robot6common32ProtoRobotAllJointStatusResponseC1ERKS2_ @2207
    _ZN4aubo5robot6common32ProtoRobotAllJointStatusResponseC1Ev @2208
    _ZN4aubo5robot6common32ProtoRobotAllJointStatusResponseC2ERKS2_ @2209
    _ZN4aubo5robot6common32ProtoRobotAllJointStatusResponseC2Ev @2210
    _ZN4aubo5robot6common32ProtoRobotAllJointStatusResponseD0Ev @2211
    _ZN4aubo5robot6common32ProtoRobotAllJointStatusResponseD1Ev @2212
    _ZN4aubo5robot6common32ProtoRobotAllJointStatusResponseD2Ev @2213
    _ZN4aubo5robot6common34ProtoResponseRobotCollisionCurrent10SharedCtorEv @2214
    _ZN4aubo5robot6common34ProtoResponseRobotCollisionCurrent10SharedDtorEv @2215
    _ZN4aubo5robot6common34ProtoResponseRobotCollisionCurrent10descriptorEv @2216
    _ZN4aubo5robot6common34ProtoResponseRobotCollisionCurrent16default_instanceEv @2217
    _ZN4aubo5robot6common34ProtoResponseRobotCollisionCurrent17default_instance_E @2218 DATA
    _ZN4aubo5robot6common34ProtoResponseRobotCollisionCurrent21InitAsDefaultInstanceEv @2219
    _ZN4aubo5robot6common34ProtoResponseRobotCollisionCurrent21kErrorInfoFieldNumberE @2220 DATA
    _ZN4aubo5robot6common34ProtoResponseRobotCollisionCurrent27MergePartialFromCodedStreamEPN6google8protobuf2io16CodedInputStreamE @2221
    _ZN4aubo5robot6common34ProtoResponseRobotCollisionCurrent28kCollisionCurrentFieldNumberE @2222 DATA
    _ZN4aubo5robot6common34ProtoResponseRobotCollisionCurrent4SwapEPS2_ @2223
    _ZN4aubo5robot6common34ProtoResponseRobotCollisionCurrent5ClearEv @2224
    _ZN4aubo5robot6common34ProtoResponseRobotCollisionCurrent8CopyFromERKN6google8protobuf7MessageE @2225
    _ZN4aubo5robot6common34ProtoResponseRobotCollisionCurrent8CopyFromERKS2_ @2226
    _ZN4aubo5robot6common34ProtoResponseRobotCollisionCurrent9MergeFromERKN6google8protobuf7MessageE @2227
    _ZN4aubo5robot6common34ProtoResponseRobotCollisionCurrent9MergeFromERKS2_ @2228
    _ZN4aubo5robot6common34ProtoResponseRobotCollisionCurrentC1ERKS2_ @2229
    _ZN4aubo5robot6common34ProtoResponseRobotCollisionCurrentC1Ev @2230
    _ZN4aubo5robot6common34ProtoResponseRobotCollisionCurrentC2ERKS2_ @2231
    _ZN4aubo5robot6common34ProtoResponseRobotCollisionCurrentC2Ev @2232
    _ZN4aubo5robot6common34ProtoResponseRobotCollisionCurrentD0Ev @2233
    _ZN4aubo5robot6common34ProtoResponseRobotCollisionCurrentD1Ev @2234
    _ZN4aubo5robot6common34ProtoResponseRobotCollisionCurrentD2Ev @2235
    _ZN4aubo5robot6common34ProtoResponseRobotGravityComponent10SharedCtorEv @2236
    _ZN4aubo5robot6common34ProtoResponseRobotGravityComponent10SharedDtorEv @2237
    _ZN4aubo5robot6common34ProtoResponseRobotGravityComponent10descriptorEv @2238
    _ZN4aubo5robot6common34ProtoResponseRobotGravityComponent16default_instanceEv @2239
    _ZN4aubo5robot6common34ProtoResponseRobotGravityComponent17default_instance_E @2240 DATA
    _ZN4aubo5robot6common34ProtoResponseRobotGravityComponent21InitAsDefaultInstanceEv @2241
    _ZN4aubo5robot6common34ProtoResponseRobotGravityComponent21kErrorInfoFieldNumberE @2242 DATA
    _ZN4aubo5robot6common34ProtoResponseRobotGravityComponent27MergePartialFromCodedStreamEPN6google8protobuf2io16CodedInputStreamE @2243
    _ZN4aubo5robot6common34ProtoResponseRobotGravityComponent28kGravityComponentFieldNumberE @2244 DATA
    _ZN4aubo5robot6common34ProtoResponseRobotGravityComponent4SwapEPS2_ @2245
    _ZN4aubo5robot6common34ProtoResponseRobotGravityComponent5ClearEv @2246
    _ZN4aubo5robot6common34ProtoResponseRobotGravityComponent8CopyFromERKN6google8protobuf7MessageE @2247
    _ZN4aubo5robot6common34ProtoResponseRobotGravityComponent8CopyFromERKS2_ @2248
    _ZN4aubo5robot6common34ProtoResponseRobotGravityComponent9MergeFromERKN6google8protobuf7MessageE @2249
    _ZN4aubo5robot6common34ProtoResponseRobotGravityComponent9MergeFromERKS2_ @2250
    _ZN4aubo5robot6common34ProtoResponseRobotGravityComponentC1ERKS2_ @2251
    _ZN4aubo5robot6common34ProtoResponseRobotGravityComponentC1Ev @2252
    _ZN4aubo5robot6common34ProtoResponseRobotGravityComponentC2ERKS2_ @2253
    _ZN4aubo5robot6common34ProtoResponseRobotGravityComponentC2Ev @2254
    _ZN4aubo5robot6common34ProtoResponseRobotGravityComponentD0Ev @2255
    _ZN4aubo5robot6common34ProtoResponseRobotGravityComponentD1Ev @2256
    _ZN4aubo5robot6common34ProtoResponseRobotGravityComponentD2Ev @2257
    _ZN4aubo5robot6common36protobuf_AddDesc_robotcommon_2eprotoEv @2258
    _ZN4aubo5robot6common39protobuf_AssignDesc_robotcommon_2eprotoEv @2259
    _ZN4aubo5robot6common3Ori10SharedCtorEv @2260
    _ZN4aubo5robot6common3Ori10SharedDtorEv @2261
    _ZN4aubo5robot6common3Ori10descriptorEv @2262
    _ZN4aubo5robot6common3Ori13kWFieldNumberE @2263 DATA
    _ZN4aubo5robot6common3Ori13kXFieldNumberE @2264 DATA
    _ZN4aubo5robot6common3Ori13kYFieldNumberE @2265 DATA
    _ZN4aubo5robot6common3Ori13kZFieldNumberE @2266 DATA
    _ZN4aubo5robot6common3Ori16default_instanceEv @2267
    _ZN4aubo5robot6common3Ori17default_instance_E @2268 DATA
    _ZN4aubo5robot6common3Ori21InitAsDefaultInstanceEv @2269
    _ZN4aubo5robot6common3Ori27MergePartialFromCodedStreamEPN6google8protobuf2io16CodedInputStreamE @2270
    _ZN4aubo5robot6common3Ori4SwapEPS2_ @2271
    _ZN4aubo5robot6common3Ori5ClearEv @2272
    _ZN4aubo5robot6common3Ori8CopyFromERKN6google8protobuf7MessageE @2273
    _ZN4aubo5robot6common3Ori8CopyFromERKS2_ @2274
    _ZN4aubo5robot6common3Ori9MergeFromERKN6google8protobuf7MessageE @2275
    _ZN4aubo5robot6common3Ori9MergeFromERKS2_ @2276
    _ZN4aubo5robot6common3OriC1ERKS2_ @2277
    _ZN4aubo5robot6common3OriC1Ev @2278
    _ZN4aubo5robot6common3OriC2ERKS2_ @2279
    _ZN4aubo5robot6common3OriC2Ev @2280
    _ZN4aubo5robot6common3OriD0Ev @2281
    _ZN4aubo5robot6common3OriD1Ev @2282
    _ZN4aubo5robot6common3OriD2Ev @2283
    _ZN4aubo5robot6common3Pos10SharedCtorEv @2284
    _ZN4aubo5robot6common3Pos10SharedDtorEv @2285
    _ZN4aubo5robot6common3Pos10descriptorEv @2286
    _ZN4aubo5robot6common3Pos13kXFieldNumberE @2287 DATA
    _ZN4aubo5robot6common3Pos13kYFieldNumberE @2288 DATA
    _ZN4aubo5robot6common3Pos13kZFieldNumberE @2289 DATA
    _ZN4aubo5robot6common3Pos16default_instanceEv @2290
    _ZN4aubo5robot6common3Pos17default_instance_E @2291 DATA
    _ZN4aubo5robot6common3Pos21InitAsDefaultInstanceEv @2292
    _ZN4aubo5robot6common3Pos27MergePartialFromCodedStreamEPN6google8protobuf2io16CodedInputStreamE @2293
    _ZN4aubo5robot6common3Pos4SwapEPS2_ @2294
    _ZN4aubo5robot6common3Pos5ClearEv @2295
    _ZN4aubo5robot6common3Pos8CopyFromERKN6google8protobuf7MessageE @2296
    _ZN4aubo5robot6common3Pos8CopyFromERKS2_ @2297
    _ZN4aubo5robot6common3Pos9MergeFromERKN6google8protobuf7MessageE @2298
    _ZN4aubo5robot6common3Pos9MergeFromERKS2_ @2299
    _ZN4aubo5robot6common3PosC1ERKS2_ @2300
    _ZN4aubo5robot6common3PosC1Ev @2301
    _ZN4aubo5robot6common3PosC2ERKS2_ @2302
    _ZN4aubo5robot6common3PosC2Ev @2303
    _ZN4aubo5robot6common3PosD0Ev @2304
    _ZN4aubo5robot6common3PosD1Ev @2305
    _ZN4aubo5robot6common3PosD2Ev @2306
    _ZN4aubo5robot6common41protobuf_ShutdownFile_robotcommon_2eprotoEv @2307
    _ZN4aubo5robot6common50static_descriptor_initializer_robotcommon_2eproto_E @2308 DATA
    _ZN4aubo5robot6common7DhParam10SharedCtorEv @2309
    _ZN4aubo5robot6common7DhParam10SharedDtorEv @2310
    _ZN4aubo5robot6common7DhParam10descriptorEv @2311
    _ZN4aubo5robot6common7DhParam14kA3FieldNumberE @2312 DATA
    _ZN4aubo5robot6common7DhParam14kA4FieldNumberE @2313 DATA
    _ZN4aubo5robot6common7DhParam14kD1FieldNumberE @2314 DATA
    _ZN4aubo5robot6common7DhParam14kD2FieldNumberE @2315 DATA
    _ZN4aubo5robot6common7DhParam14kD5FieldNumberE @2316 DATA
    _ZN4aubo5robot6common7DhParam14kD6FieldNumberE @2317 DATA
    _ZN4aubo5robot6common7DhParam16default_instanceEv @2318
    _ZN4aubo5robot6common7DhParam17default_instance_E @2319 DATA
    _ZN4aubo5robot6common7DhParam21InitAsDefaultInstanceEv @2320
    _ZN4aubo5robot6common7DhParam27MergePartialFromCodedStreamEPN6google8protobuf2io16CodedInputStreamE @2321
    _ZN4aubo5robot6common7DhParam4SwapEPS2_ @2322
    _ZN4aubo5robot6common7DhParam5ClearEv @2323
    _ZN4aubo5robot6common7DhParam8CopyFromERKN6google8protobuf7MessageE @2324
    _ZN4aubo5robot6common7DhParam8CopyFromERKS2_ @2325
    _ZN4aubo5robot6common7DhParam9MergeFromERKN6google8protobuf7MessageE @2326
    _ZN4aubo5robot6common7DhParam9MergeFromERKS2_ @2327
    _ZN4aubo5robot6common7DhParamC1ERKS2_ @2328
    _ZN4aubo5robot6common7DhParamC1Ev @2329
    _ZN4aubo5robot6common7DhParamC2ERKS2_ @2330
    _ZN4aubo5robot6common7DhParamC2Ev @2331
    _ZN4aubo5robot6common7DhParamD0Ev @2332
    _ZN4aubo5robot6common7DhParamD1Ev @2333
    _ZN4aubo5robot6common7DhParamD2Ev @2334
    _ZN4aubo5robot6common9RobotMove10SharedCtorEv @2335
    _ZN4aubo5robot6common9RobotMove10SharedDtorEv @2336
    _ZN4aubo5robot6common9RobotMove10descriptorEv @2337
    _ZN4aubo5robot6common9RobotMove16default_instanceEv @2338
    _ZN4aubo5robot6common9RobotMove17default_instance_E @2339 DATA
    _ZN4aubo5robot6common9RobotMove21InitAsDefaultInstanceEv @2340
    _ZN4aubo5robot6common9RobotMove23kMoveProfileFieldNumberE @2341 DATA
    _ZN4aubo5robot6common9RobotMove27MergePartialFromCodedStreamEPN6google8protobuf2io16CodedInputStreamE @2342
    _ZN4aubo5robot6common9RobotMove27kRoadPointVectorFieldNumberE @2343 DATA
    _ZN4aubo5robot6common9RobotMove4SwapEPS2_ @2344
    _ZN4aubo5robot6common9RobotMove5ClearEv @2345
    _ZN4aubo5robot6common9RobotMove8CopyFromERKN6google8protobuf7MessageE @2346
    _ZN4aubo5robot6common9RobotMove8CopyFromERKS2_ @2347
    _ZN4aubo5robot6common9RobotMove9MergeFromERKN6google8protobuf7MessageE @2348
    _ZN4aubo5robot6common9RobotMove9MergeFromERKS2_ @2349
    _ZN4aubo5robot6common9RobotMoveC1ERKS2_ @2350
    _ZN4aubo5robot6common9RobotMoveC1Ev @2351
    _ZN4aubo5robot6common9RobotMoveC2ERKS2_ @2352
    _ZN4aubo5robot6common9RobotMoveC2Ev @2353
    _ZN4aubo5robot6common9RobotMoveD0Ev @2354
    _ZN4aubo5robot6common9RobotMoveD1Ev @2355
    _ZN4aubo5robot6common9RobotMoveD2Ev @2356
    _ZN4aubo5robot6common9ToolParam10SharedCtorEv @2357
    _ZN4aubo5robot6common9ToolParam10SharedDtorEv @2358
    _ZN4aubo5robot6common9ToolParam10descriptorEv @2359
    _ZN4aubo5robot6common9ToolParam16default_instanceEv @2360
    _ZN4aubo5robot6common9ToolParam17default_instance_E @2361 DATA
    _ZN4aubo5robot6common9ToolParam21InitAsDefaultInstanceEv @2362
    _ZN4aubo5robot6common9ToolParam21kErrorInfoFieldNumberE @2363 DATA
    _ZN4aubo5robot6common9ToolParam27MergePartialFromCodedStreamEPN6google8protobuf2io16CodedInputStreamE @2364
    _ZN4aubo5robot6common9ToolParam29kToolDynamicsParamFieldNumberE @2365 DATA
    _ZN4aubo5robot6common9ToolParam31kToolKinematicsParamFieldNumberE @2366 DATA
    _ZN4aubo5robot6common9ToolParam4SwapEPS2_ @2367
    _ZN4aubo5robot6common9ToolParam5ClearEv @2368
    _ZN4aubo5robot6common9ToolParam8CopyFromERKN6google8protobuf7MessageE @2369
    _ZN4aubo5robot6common9ToolParam8CopyFromERKS2_ @2370
    _ZN4aubo5robot6common9ToolParam9MergeFromERKN6google8protobuf7MessageE @2371
    _ZN4aubo5robot6common9ToolParam9MergeFromERKS2_ @2372
    _ZN4aubo5robot6common9ToolParamC1ERKS2_ @2373
    _ZN4aubo5robot6common9ToolParamC1Ev @2374
    _ZN4aubo5robot6common9ToolParamC2ERKS2_ @2375
    _ZN4aubo5robot6common9ToolParamC2Ev @2376
    _ZN4aubo5robot6common9ToolParamD0Ev @2377
    _ZN4aubo5robot6common9ToolParamD1Ev @2378
    _ZN4aubo5robot6common9ToolParamD2Ev @2379
    _ZN6Ikfunc10api_arm_ikE3Pos3OriPd @2380
    _ZN6Ikfunc12ArmIkProtectER10wayPoint_SPdbb @2381
    _ZN6Ikfunc12joint6Rot360E @2382 DATA
    _ZN6Ikfunc13ComputeIk_newER10wayPoint_SPA8_d @2383
    _ZN6Ikfunc14posOri2homoArrE14cartesianPos_U3OriPdS2_ @2384
    _ZN6Ikfunc15RPYToQuaternionER3OriPf @2385
    _ZN6Ikfunc15hMatrixMultiplyEPdS0_S0_S0_P10wayPoint_SS0_ @2386
    _ZN6Ikfunc15quaternionToRPYE3OriPf @2387
    _ZN6Ikfunc15setDhParametersE15aubo_robot_typedddddd @2388
    _ZN6Ikfunc15waypointDisplayER10wayPoint_SS0_N18MoveConditionClass16coordinate_referEPdP3OriPS0_c @2389
    _ZN6Ikfunc17QuaternionMultplyER3OriS0_b @2390
    _ZN6Ikfunc17robotCoordConvertER10wayPoint_SS0_PS0_cPdP3OriN18MoveConditionClass16coordinate_referES7_ @2391
    _ZN6Ikfunc19QuaternionInversionER3Ori @2392
    _ZN6Ikfunc19coordinateTransformER10wayPoint_SS0_PdP3OriN18MoveConditionClass16coordinate_referEPS0_c @2393
    _ZN6Ikfunc19toolCoordinateCalibEP10wayPoint_SibPdcS1_P3Ori @2394
    _ZN6Ikfunc19userCoordinateCalibEP10wayPoint_ScPdS2_S2_ @2395
    _ZN6Ikfunc20api_tool_coord_calibEP10wayPoint_SjS1_cPdR3Ori @2396
    _ZN6Ikfunc20api_user_coord_calibEP10wayPoint_ScPdS2_S2_ @2397
    _ZN6Ikfunc20hMatrixVectorProductEbPdS0_bS0_S0_ @2398
    _ZN6Ikfunc21OriMatrixToQuaternionEPdR3Ori @2399
    _ZN6Ikfunc21QuaternionToOriMatrixE3OriPd @2400
    _ZN6Ikfunc24endPosition2ToolPositionER10wayPoint_SPdS2_ @2401
    _ZN6Ikfunc24toolPosition2EndPositionE10wayPoint_SR14cartesianPos_UPd @2402
    _ZN6Ikfunc30endOrientation2ToolOrientationE3OriS0_RS0_ @2403
    _ZN6Ikfunc30toolOrientation2EndOrientationE3OriS0_RS0_ @2404
    _ZN6Ikfunc4NORMEdddd @2405
    _ZN6Ikfunc4SIGNEd @2406
    _ZN6Ikfunc5ArmFkER10wayPoint_S @2407
    _ZN6Ikfunc5ArmFkER3PosR3OriPd @2408
    _ZN6Ikfunc5ArmIkER10wayPoint_SPdbb @2409
    _ZN6google8protobuf10ReflectionD0Ev @2410
    _ZN6google8protobuf10ReflectionD1Ev @2411
    _ZN6google8protobuf10ReflectionD2Ev @2412
    _ZN6google8protobuf10SimpleDtoaEd @2413
    _ZN6google8protobuf10SimpleFtoaEf @2414
    _ZN6google8protobuf10SimpleItoaEi @2415
    _ZN6google8protobuf10SimpleItoaEj @2416
    _ZN6google8protobuf10SimpleItoaEl @2417
    _ZN6google8protobuf10SimpleItoaEm @2418
    _ZN6google8protobuf10SimpleItoaEx @2419
    _ZN6google8protobuf10SimpleItoaEy @2420
    _ZN6google8protobuf10TextFormat13ParseInfoTree12CreateNestedEPKNS0_15FieldDescriptorE @2421
    _ZN6google8protobuf10TextFormat13ParseInfoTree14RecordLocationEPKNS0_15FieldDescriptorENS1_13ParseLocationE @2422
    _ZN6google8protobuf10TextFormat13ParseInfoTreeC1Ev @2423
    _ZN6google8protobuf10TextFormat13ParseInfoTreeC2Ev @2424
    _ZN6google8protobuf10TextFormat13ParseInfoTreeD1Ev @2425
    _ZN6google8protobuf10TextFormat13ParseInfoTreeD2Ev @2426
    _ZN6google8protobuf10TextFormat13PrintToStringERKNS0_7MessageEPSs @2427
    _ZN6google8protobuf10TextFormat15MergeFromStringERKSsPNS0_7MessageE @2428
    _ZN6google8protobuf10TextFormat15ParseFromStringERKSsPNS0_7MessageE @2429
    _ZN6google8protobuf10TextFormat17FieldValuePrinterC1Ev @2430
    _ZN6google8protobuf10TextFormat17FieldValuePrinterC2Ev @2431
    _ZN6google8protobuf10TextFormat17FieldValuePrinterD0Ev @2432
    _ZN6google8protobuf10TextFormat17FieldValuePrinterD1Ev @2433
    _ZN6google8protobuf10TextFormat17FieldValuePrinterD2Ev @2434
    _ZN6google8protobuf10TextFormat18PrintUnknownFieldsERKNS0_15UnknownFieldSetEPNS0_2io20ZeroCopyOutputStreamE @2435
    _ZN6google8protobuf10TextFormat23PrintFieldValueToStringERKNS0_7MessageEPKNS0_15FieldDescriptorEiPSs @2436
    _ZN6google8protobuf10TextFormat25ParseFieldValueFromStringERKSsPKNS0_15FieldDescriptorEPNS0_7MessageE @2437
    _ZN6google8protobuf10TextFormat26PrintUnknownFieldsToStringERKNS0_15UnknownFieldSetEPSs @2438
    _ZN6google8protobuf10TextFormat5MergeEPNS0_2io19ZeroCopyInputStreamEPNS0_7MessageE @2439
    _ZN6google8protobuf10TextFormat5ParseEPNS0_2io19ZeroCopyInputStreamEPNS0_7MessageE @2440
    _ZN6google8protobuf10TextFormat5PrintERKNS0_7MessageEPNS0_2io20ZeroCopyOutputStreamE @2441
    _ZN6google8protobuf10TextFormat6FinderD0Ev @2442
    _ZN6google8protobuf10TextFormat6FinderD1Ev @2443
    _ZN6google8protobuf10TextFormat6FinderD2Ev @2444
    _ZN6google8protobuf10TextFormat6Parser10ParserImpl10TryConsumeERKSs @2445
    _ZN6google8protobuf10TextFormat6Parser10ParserImpl11ReportErrorEiiRKSs @2446
    _ZN6google8protobuf10TextFormat6Parser10ParserImpl12ConsumeFieldEPNS0_7MessageE @2447
    _ZN6google8protobuf10TextFormat6Parser10ParserImpl13ReportWarningEiiRKSs @2448
    _ZN6google8protobuf10TextFormat6Parser10ParserImpl14ConsumeMessageEPNS0_7MessageESs @2449
    _ZN6google8protobuf10TextFormat6Parser10ParserImpl14SkipFieldValueEv @2450
    _ZN6google8protobuf10TextFormat6Parser10ParserImpl16SkipFieldMessageEv @2451
    _ZN6google8protobuf10TextFormat6Parser10ParserImpl17ConsumeFieldValueEPNS0_7MessageEPKNS0_10ReflectionEPKNS0_15FieldDescriptorE @2452
    _ZN6google8protobuf10TextFormat6Parser10ParserImpl17ConsumeIdentifierEPSs @2453
    _ZN6google8protobuf10TextFormat6Parser10ParserImpl19ConsumeFieldMessageEPNS0_7MessageEPKNS0_10ReflectionEPKNS0_15FieldDescriptorE @2454
    _ZN6google8protobuf10TextFormat6Parser10ParserImpl20ParserErrorCollector10AddWarningEiiRKSs @2455
    _ZN6google8protobuf10TextFormat6Parser10ParserImpl20ParserErrorCollector8AddErrorEiiRKSs @2456
    _ZN6google8protobuf10TextFormat6Parser10ParserImpl20ParserErrorCollectorD0Ev @2457
    _ZN6google8protobuf10TextFormat6Parser10ParserImpl20ParserErrorCollectorD1Ev @2458
    _ZN6google8protobuf10TextFormat6Parser10ParserImpl22ConsumeUnsignedIntegerEPyy @2459
    _ZN6google8protobuf10TextFormat6Parser10ParserImpl7ConsumeERKSs @2460
    _ZN6google8protobuf10TextFormat6Parser10ParserImpl9SkipFieldEv @2461
    _ZN6google8protobuf10TextFormat6Parser14MergeUsingImplEPNS0_2io19ZeroCopyInputStreamEPNS0_7MessageEPNS2_10ParserImplE @2462
    _ZN6google8protobuf10TextFormat6Parser15MergeFromStringERKSsPNS0_7MessageE @2463
    _ZN6google8protobuf10TextFormat6Parser15ParseFromStringERKSsPNS0_7MessageE @2464
    _ZN6google8protobuf10TextFormat6Parser25ParseFieldValueFromStringERKSsPKNS0_15FieldDescriptorEPNS0_7MessageE @2465
    _ZN6google8protobuf10TextFormat6Parser5MergeEPNS0_2io19ZeroCopyInputStreamEPNS0_7MessageE @2466
    _ZN6google8protobuf10TextFormat6Parser5ParseEPNS0_2io19ZeroCopyInputStreamEPNS0_7MessageE @2467
    _ZN6google8protobuf10TextFormat6ParserC1Ev @2468
    _ZN6google8protobuf10TextFormat6ParserC2Ev @2469
    _ZN6google8protobuf10TextFormat6ParserD1Ev @2470
    _ZN6google8protobuf10TextFormat6ParserD2Ev @2471
    _ZN6google8protobuf10TextFormat7Printer13TextGenerator5PrintEPKci @2472
    _ZN6google8protobuf10TextFormat7Printer13TextGeneratorD1Ev @2473
    _ZN6google8protobuf10TextFormat7Printer24SetUseUtf8StringEscapingEb @2474
    _ZN6google8protobuf10TextFormat7Printer25RegisterFieldValuePrinterEPKNS0_15FieldDescriptorEPKNS1_17FieldValuePrinterE @2475
    _ZN6google8protobuf10TextFormat7Printer27SetDefaultFieldValuePrinterEPKNS1_17FieldValuePrinterE @2476
    _ZN6google8protobuf10TextFormat7PrinterC1Ev @2477
    _ZN6google8protobuf10TextFormat7PrinterC2Ev @2478
    _ZN6google8protobuf10TextFormat7PrinterD1Ev @2479
    _ZN6google8protobuf10TextFormat7PrinterD2Ev @2480
    _ZN6google8protobuf11EnumOptions10SharedCtorEv @2481
    _ZN6google8protobuf11EnumOptions10SharedDtorEv @2482
    _ZN6google8protobuf11EnumOptions10descriptorEv @2483
    _ZN6google8protobuf11EnumOptions16default_instanceEv @2484
    _ZN6google8protobuf11EnumOptions17default_instance_E @2485 DATA
    _ZN6google8protobuf11EnumOptions21InitAsDefaultInstanceEv @2486
    _ZN6google8protobuf11EnumOptions22kAllowAliasFieldNumberE @2487 DATA
    _ZN6google8protobuf11EnumOptions22kDeprecatedFieldNumberE @2488 DATA
    _ZN6google8protobuf11EnumOptions27MergePartialFromCodedStreamEPNS0_2io16CodedInputStreamE @2489
    _ZN6google8protobuf11EnumOptions31kUninterpretedOptionFieldNumberE @2490 DATA
    _ZN6google8protobuf11EnumOptions4SwapEPS1_ @2491
    _ZN6google8protobuf11EnumOptions5ClearEv @2492
    _ZN6google8protobuf11EnumOptions8CopyFromERKNS0_7MessageE @2493
    _ZN6google8protobuf11EnumOptions8CopyFromERKS1_ @2494
    _ZN6google8protobuf11EnumOptions9MergeFromERKNS0_7MessageE @2495
    _ZN6google8protobuf11EnumOptions9MergeFromERKS1_ @2496
    _ZN6google8protobuf11EnumOptionsC1ERKS1_ @2497
    _ZN6google8protobuf11EnumOptionsC1Ev @2498
    _ZN6google8protobuf11EnumOptionsC2ERKS1_ @2499
    _ZN6google8protobuf11EnumOptionsC2Ev @2500
    _ZN6google8protobuf11EnumOptionsD0Ev @2501
    _ZN6google8protobuf11EnumOptionsD1Ev @2502
    _ZN6google8protobuf11EnumOptionsD2Ev @2503
    _ZN6google8protobuf11FileOptions10SharedCtorEv @2504
    _ZN6google8protobuf11FileOptions10SharedDtorEv @2505
    _ZN6google8protobuf11FileOptions10descriptorEv @2506
    _ZN6google8protobuf11FileOptions12LITE_RUNTIMEE @2507 DATA
    _ZN6google8protobuf11FileOptions16OptimizeMode_MAXE @2508 DATA
    _ZN6google8protobuf11FileOptions16OptimizeMode_MINE @2509 DATA
    _ZN6google8protobuf11FileOptions16default_instanceEv @2510
    _ZN6google8protobuf11FileOptions17default_instance_E @2511 DATA
    _ZN6google8protobuf11FileOptions21InitAsDefaultInstanceEv @2512
    _ZN6google8protobuf11FileOptions21kGoPackageFieldNumberE @2513 DATA
    _ZN6google8protobuf11FileOptions22OptimizeMode_ARRAYSIZEE @2514 DATA
    _ZN6google8protobuf11FileOptions22kDeprecatedFieldNumberE @2515 DATA
    _ZN6google8protobuf11FileOptions23kJavaPackageFieldNumberE @2516 DATA
    _ZN6google8protobuf11FileOptions23kOptimizeForFieldNumberE @2517 DATA
    _ZN6google8protobuf11FileOptions27MergePartialFromCodedStreamEPNS0_2io16CodedInputStreamE @2518
    _ZN6google8protobuf11FileOptions29kCcGenericServicesFieldNumberE @2519 DATA
    _ZN6google8protobuf11FileOptions29kJavaMultipleFilesFieldNumberE @2520 DATA
    _ZN6google8protobuf11FileOptions29kPyGenericServicesFieldNumberE @2521 DATA
    _ZN6google8protobuf11FileOptions30kJavaOuterClassnameFieldNumberE @2522 DATA
    _ZN6google8protobuf11FileOptions31kJavaGenericServicesFieldNumberE @2523 DATA
    _ZN6google8protobuf11FileOptions31kJavaStringCheckUtf8FieldNumberE @2524 DATA
    _ZN6google8protobuf11FileOptions31kUninterpretedOptionFieldNumberE @2525 DATA
    _ZN6google8protobuf11FileOptions37kJavaGenerateEqualsAndHashFieldNumberE @2526 DATA
    _ZN6google8protobuf11FileOptions4SwapEPS1_ @2527
    _ZN6google8protobuf11FileOptions5ClearEv @2528
    _ZN6google8protobuf11FileOptions5SPEEDE @2529 DATA
    _ZN6google8protobuf11FileOptions8CopyFromERKNS0_7MessageE @2530
    _ZN6google8protobuf11FileOptions8CopyFromERKS1_ @2531
    _ZN6google8protobuf11FileOptions9CODE_SIZEE @2532 DATA
    _ZN6google8protobuf11FileOptions9MergeFromERKNS0_7MessageE @2533
    _ZN6google8protobuf11FileOptions9MergeFromERKS1_ @2534
    _ZN6google8protobuf11FileOptionsC1ERKS1_ @2535
    _ZN6google8protobuf11FileOptionsC1Ev @2536
    _ZN6google8protobuf11FileOptionsC2ERKS1_ @2537
    _ZN6google8protobuf11FileOptionsC2Ev @2538
    _ZN6google8protobuf11FileOptionsD0Ev @2539
    _ZN6google8protobuf11FileOptionsD1Ev @2540
    _ZN6google8protobuf11FileOptionsD2Ev @2541
    _ZN6google8protobuf11JoinStringsERKSt6vectorISsSaISsEEPKcPSs @2542
    _ZN6google8protobuf11LogSilencerC1Ev @2543
    _ZN6google8protobuf11LogSilencerC2Ev @2544
    _ZN6google8protobuf11LogSilencerD1Ev @2545
    _ZN6google8protobuf11LogSilencerD2Ev @2546
    _ZN6google8protobuf11LowerStringEPSs @2547
    _ZN6google8protobuf11MessageLite14ParseFromArrayEPKvi @2548
    _ZN6google8protobuf11MessageLite15ParseFromStringERKSs @2549
    _ZN6google8protobuf11MessageLite20MergeFromCodedStreamEPNS0_2io16CodedInputStreamE @2550
    _ZN6google8protobuf11MessageLite20ParseFromCodedStreamEPNS0_2io16CodedInputStreamE @2551
    _ZN6google8protobuf11MessageLite21ParsePartialFromArrayEPKvi @2552
    _ZN6google8protobuf11MessageLite22ParsePartialFromStringERKSs @2553
    _ZN6google8protobuf11MessageLite23ParseFromZeroCopyStreamEPNS0_2io19ZeroCopyInputStreamE @2554
    _ZN6google8protobuf11MessageLite27ParsePartialFromCodedStreamEPNS0_2io16CodedInputStreamE @2555
    _ZN6google8protobuf11MessageLite30ParseFromBoundedZeroCopyStreamEPNS0_2io19ZeroCopyInputStreamEi @2556
    _ZN6google8protobuf11MessageLite30ParsePartialFromZeroCopyStreamEPNS0_2io19ZeroCopyInputStreamE @2557
    _ZN6google8protobuf11MessageLite37ParsePartialFromBoundedZeroCopyStreamEPNS0_2io19ZeroCopyInputStreamEi @2558
    _ZN6google8protobuf11MessageLiteD0Ev @2559
    _ZN6google8protobuf11MessageLiteD1Ev @2560
    _ZN6google8protobuf11MessageLiteD2Ev @2561
    _ZN6google8protobuf11StripStringEPSsPKcc @2562
    _ZN6google8protobuf11safe_strtofEPKcPf @2563
    _ZN6google8protobuf12FieldOptions10SharedCtorEv @2564
    _ZN6google8protobuf12FieldOptions10SharedDtorEv @2565
    _ZN6google8protobuf12FieldOptions10descriptorEv @2566
    _ZN6google8protobuf12FieldOptions12STRING_PIECEE @2567 DATA
    _ZN6google8protobuf12FieldOptions15CType_ARRAYSIZEE @2568 DATA
    _ZN6google8protobuf12FieldOptions16default_instanceEv @2569
    _ZN6google8protobuf12FieldOptions16kLazyFieldNumberE @2570 DATA
    _ZN6google8protobuf12FieldOptions16kWeakFieldNumberE @2571 DATA
    _ZN6google8protobuf12FieldOptions17default_instance_E @2572 DATA
    _ZN6google8protobuf12FieldOptions17kCtypeFieldNumberE @2573 DATA
    _ZN6google8protobuf12FieldOptions18kPackedFieldNumberE @2574 DATA
    _ZN6google8protobuf12FieldOptions21InitAsDefaultInstanceEv @2575
    _ZN6google8protobuf12FieldOptions22kDeprecatedFieldNumberE @2576 DATA
    _ZN6google8protobuf12FieldOptions27MergePartialFromCodedStreamEPNS0_2io16CodedInputStreamE @2577
    _ZN6google8protobuf12FieldOptions30kExperimentalMapKeyFieldNumberE @2578 DATA
    _ZN6google8protobuf12FieldOptions31kUninterpretedOptionFieldNumberE @2579 DATA
    _ZN6google8protobuf12FieldOptions4CORDE @2580 DATA
    _ZN6google8protobuf12FieldOptions4SwapEPS1_ @2581
    _ZN6google8protobuf12FieldOptions5ClearEv @2582
    _ZN6google8protobuf12FieldOptions6STRINGE @2583 DATA
    _ZN6google8protobuf12FieldOptions8CopyFromERKNS0_7MessageE @2584
    _ZN6google8protobuf12FieldOptions8CopyFromERKS1_ @2585
    _ZN6google8protobuf12FieldOptions9CType_MAXE @2586 DATA
    _ZN6google8protobuf12FieldOptions9CType_MINE @2587 DATA
    _ZN6google8protobuf12FieldOptions9MergeFromERKNS0_7MessageE @2588
    _ZN6google8protobuf12FieldOptions9MergeFromERKS1_ @2589
    _ZN6google8protobuf12FieldOptionsC1ERKS1_ @2590
    _ZN6google8protobuf12FieldOptionsC1Ev @2591
    _ZN6google8protobuf12FieldOptionsC2ERKS1_ @2592
    _ZN6google8protobuf12FieldOptionsC2Ev @2593
    _ZN6google8protobuf12FieldOptionsD0Ev @2594
    _ZN6google8protobuf12FieldOptionsD1Ev @2595
    _ZN6google8protobuf12FieldOptionsD2Ev @2596
    _ZN6google8protobuf12StringPrintfEPKcz @2597
    _ZN6google8protobuf12UnknownField6DeleteEv @2598
    _ZN6google8protobuf12UnknownField8DeepCopyEv @2599
    _ZN6google8protobuf13CEscapeStringEPKciPci @2600
    _ZN6google8protobuf13FloatToBufferEfPc @2601
    _ZN6google8protobuf13MethodOptions10SharedCtorEv @2602
    _ZN6google8protobuf13MethodOptions10SharedDtorEv @2603
    _ZN6google8protobuf13MethodOptions10descriptorEv @2604
    _ZN6google8protobuf13MethodOptions16default_instanceEv @2605
    _ZN6google8protobuf13MethodOptions17default_instance_E @2606 DATA
    _ZN6google8protobuf13MethodOptions21InitAsDefaultInstanceEv @2607
    _ZN6google8protobuf13MethodOptions22kDeprecatedFieldNumberE @2608 DATA
    _ZN6google8protobuf13MethodOptions27MergePartialFromCodedStreamEPNS0_2io16CodedInputStreamE @2609
    _ZN6google8protobuf13MethodOptions31kUninterpretedOptionFieldNumberE @2610 DATA
    _ZN6google8protobuf13MethodOptions4SwapEPS1_ @2611
    _ZN6google8protobuf13MethodOptions5ClearEv @2612
    _ZN6google8protobuf13MethodOptions8CopyFromERKNS0_7MessageE @2613
    _ZN6google8protobuf13MethodOptions8CopyFromERKS1_ @2614
    _ZN6google8protobuf13MethodOptions9MergeFromERKNS0_7MessageE @2615
    _ZN6google8protobuf13MethodOptions9MergeFromERKS1_ @2616
    _ZN6google8protobuf13MethodOptionsC1ERKS1_ @2617
    _ZN6google8protobuf13MethodOptionsC1Ev @2618
    _ZN6google8protobuf13MethodOptionsC2ERKS1_ @2619
    _ZN6google8protobuf13MethodOptionsC2Ev @2620
    _ZN6google8protobuf13MethodOptionsD0Ev @2621
    _ZN6google8protobuf13MethodOptionsD1Ev @2622
    _ZN6google8protobuf13MethodOptionsD2Ev @2623
    _ZN6google8protobuf13RepeatedFieldIbE7ReserveEi @2624
    _ZN6google8protobuf13RepeatedFieldIdE7ReserveEi @2625
    _ZN6google8protobuf13RepeatedFieldIfE7ReserveEi @2626
    _ZN6google8protobuf13RepeatedFieldIiE7ReserveEi @2627
    _ZN6google8protobuf13RepeatedFieldIiE9MergeFromERKS2_ @2628
    _ZN6google8protobuf13RepeatedFieldIjE7ReserveEi @2629
    _ZN6google8protobuf13RepeatedFieldIxE7ReserveEi @2630
    _ZN6google8protobuf13RepeatedFieldIyE7ReserveEi @2631
    _ZN6google8protobuf13SStringPrintfEPSsPKcz @2632
    _ZN6google8protobuf13SetLogHandlerEPFvNS0_8LogLevelEPKciRKSsE @2633
    _ZN6google8protobuf13StringAppendFEPSsPKcz @2634
    _ZN6google8protobuf13StringAppendVEPSsPKcPc @2635
    _ZN6google8protobuf13StringReplaceERKSsS2_S2_b @2636
    _ZN6google8protobuf13StringReplaceERKSsS2_S2_bPSs @2637
    _ZN6google8protobuf14DescriptorPool14ErrorCollector10AddWarningERKSsS4_PKNS0_7MessageENS2_13ErrorLocationES4_ @2638
    _ZN6google8protobuf14DescriptorPool14ErrorCollectorD0Ev @2639
    _ZN6google8protobuf14DescriptorPool14ErrorCollectorD1Ev @2640
    _ZN6google8protobuf14DescriptorPool14ErrorCollectorD2Ev @2641
    _ZN6google8protobuf14DescriptorPool14generated_poolEv @2642
    _ZN6google8protobuf14DescriptorPool23internal_generated_poolEv @2643
    _ZN6google8protobuf14DescriptorPool24AddUnusedImportTrackFileERKSs @2644
    _ZN6google8protobuf14DescriptorPool24InternalAddGeneratedFileEPKvi @2645
    _ZN6google8protobuf14DescriptorPool25BuildFileCollectingErrorsERKNS0_19FileDescriptorProtoEPNS1_14ErrorCollectorE @2646
    _ZN6google8protobuf14DescriptorPool27ClearUnusedImportTrackFilesEv @2647
    _ZN6google8protobuf14DescriptorPool31InternalDontEnforceDependenciesEv @2648
    _ZN6google8protobuf14DescriptorPool6Tables12AddExtensionEPKNS0_15FieldDescriptorE @2649
    _ZN6google8protobuf14DescriptorPool6Tables13AddCheckpointEv @2650
    _ZN6google8protobuf14DescriptorPool6Tables13AllocateBytesEi @2651
    _ZN6google8protobuf14DescriptorPool6Tables14AllocateStringERKSs @2652
    _ZN6google8protobuf14DescriptorPool6Tables18AllocateFileTablesEv @2653
    _ZN6google8protobuf14DescriptorPool6Tables19ClearLastCheckpointEv @2654
    _ZN6google8protobuf14DescriptorPool6Tables24RollbackToLastCheckpointEv @2655
    _ZN6google8protobuf14DescriptorPool6Tables7AddFileEPKNS0_14FileDescriptorE @2656
    _ZN6google8protobuf14DescriptorPool6TablesC1Ev @2657
    _ZN6google8protobuf14DescriptorPool6TablesC2Ev @2658
    _ZN6google8protobuf14DescriptorPool6TablesD1Ev @2659
    _ZN6google8protobuf14DescriptorPool6TablesD2Ev @2660
    _ZN6google8protobuf14DescriptorPool9BuildFileERKNS0_19FileDescriptorProtoE @2661
    _ZN6google8protobuf14DescriptorPoolC1EPKS1_ @2662
    _ZN6google8protobuf14DescriptorPoolC1EPNS0_18DescriptorDatabaseEPNS1_14ErrorCollectorE @2663
    _ZN6google8protobuf14DescriptorPoolC1Ev @2664
    _ZN6google8protobuf14DescriptorPoolC2EPKS1_ @2665
    _ZN6google8protobuf14DescriptorPoolC2EPNS0_18DescriptorDatabaseEPNS1_14ErrorCollectorE @2666
    _ZN6google8protobuf14DescriptorPoolC2Ev @2667
    _ZN6google8protobuf14DescriptorPoolD1Ev @2668
    _ZN6google8protobuf14DescriptorPoolD2Ev @2669
    _ZN6google8protobuf14DoubleToBufferEdPc @2670
    _ZN6google8protobuf14DynamicMessage19CrossLinkPrototypesEv @2671
    _ZN6google8protobuf14DynamicMessageC1EPKNS1_8TypeInfoE @2672
    _ZN6google8protobuf14DynamicMessageC2EPKNS1_8TypeInfoE @2673
    _ZN6google8protobuf14DynamicMessageD0Ev @2674
    _ZN6google8protobuf14DynamicMessageD1Ev @2675
    _ZN6google8protobuf14DynamicMessageD2Ev @2676
    _ZN6google8protobuf14FatalExceptionD0Ev @2677
    _ZN6google8protobuf14FatalExceptionD1Ev @2678
    _ZN6google8protobuf14FatalExceptionD2Ev @2679
    _ZN6google8protobuf14MessageFactory17generated_factoryEv @2680
    _ZN6google8protobuf14MessageFactory29InternalRegisterGeneratedFileEPKcPFvRKSsE @2681
    _ZN6google8protobuf14MessageFactory32InternalRegisterGeneratedMessageEPKNS0_10DescriptorEPKNS0_7MessageE @2682
    _ZN6google8protobuf14MessageFactoryD0Ev @2683
    _ZN6google8protobuf14MessageFactoryD1Ev @2684
    _ZN6google8protobuf14MessageFactoryD2Ev @2685
    _ZN6google8protobuf14MessageOptions10SharedCtorEv @2686
    _ZN6google8protobuf14MessageOptions10SharedDtorEv @2687
    _ZN6google8protobuf14MessageOptions10descriptorEv @2688
    _ZN6google8protobuf14MessageOptions16default_instanceEv @2689
    _ZN6google8protobuf14MessageOptions17default_instance_E @2690 DATA
    _ZN6google8protobuf14MessageOptions21InitAsDefaultInstanceEv @2691
    _ZN6google8protobuf14MessageOptions22kDeprecatedFieldNumberE @2692 DATA
    _ZN6google8protobuf14MessageOptions27MergePartialFromCodedStreamEPNS0_2io16CodedInputStreamE @2693
    _ZN6google8protobuf14MessageOptions31kUninterpretedOptionFieldNumberE @2694 DATA
    _ZN6google8protobuf14MessageOptions32kMessageSetWireFormatFieldNumberE @2695 DATA
    _ZN6google8protobuf14MessageOptions40kNoStandardDescriptorAccessorFieldNumberE @2696 DATA
    _ZN6google8protobuf14MessageOptions4SwapEPS1_ @2697
    _ZN6google8protobuf14MessageOptions5ClearEv @2698
    _ZN6google8protobuf14MessageOptions8CopyFromERKNS0_7MessageE @2699
    _ZN6google8protobuf14MessageOptions8CopyFromERKS1_ @2700
    _ZN6google8protobuf14MessageOptions9MergeFromERKNS0_7MessageE @2701
    _ZN6google8protobuf14MessageOptions9MergeFromERKS1_ @2702
    _ZN6google8protobuf14MessageOptionsC1ERKS1_ @2703
    _ZN6google8protobuf14MessageOptionsC1Ev @2704
    _ZN6google8protobuf14MessageOptionsC2ERKS1_ @2705
    _ZN6google8protobuf14MessageOptionsC2Ev @2706
    _ZN6google8protobuf14MessageOptionsD0Ev @2707
    _ZN6google8protobuf14MessageOptionsD1Ev @2708
    _ZN6google8protobuf14MessageOptionsD2Ev @2709
    _ZN6google8protobuf14ServiceOptions10SharedCtorEv @2710
    _ZN6google8protobuf14ServiceOptions10SharedDtorEv @2711
    _ZN6google8protobuf14ServiceOptions10descriptorEv @2712
    _ZN6google8protobuf14ServiceOptions16default_instanceEv @2713
    _ZN6google8protobuf14ServiceOptions17default_instance_E @2714 DATA
    _ZN6google8protobuf14ServiceOptions21InitAsDefaultInstanceEv @2715
    _ZN6google8protobuf14ServiceOptions22kDeprecatedFieldNumberE @2716 DATA
    _ZN6google8protobuf14ServiceOptions27MergePartialFromCodedStreamEPNS0_2io16CodedInputStreamE @2717
    _ZN6google8protobuf14ServiceOptions31kUninterpretedOptionFieldNumberE @2718 DATA
    _ZN6google8protobuf14ServiceOptions4SwapEPS1_ @2719
    _ZN6google8protobuf14ServiceOptions5ClearEv @2720
    _ZN6google8protobuf14ServiceOptions8CopyFromERKNS0_7MessageE @2721
    _ZN6google8protobuf14ServiceOptions8CopyFromERKS1_ @2722
    _ZN6google8protobuf14ServiceOptions9MergeFromERKNS0_7MessageE @2723
    _ZN6google8protobuf14ServiceOptions9MergeFromERKS1_ @2724
    _ZN6google8protobuf14ServiceOptionsC1ERKS1_ @2725
    _ZN6google8protobuf14ServiceOptionsC1Ev @2726
    _ZN6google8protobuf14ServiceOptionsC2ERKS1_ @2727
    _ZN6google8protobuf14ServiceOptionsC2Ev @2728
    _ZN6google8protobuf14ServiceOptionsD0Ev @2729
    _ZN6google8protobuf14ServiceOptionsD1Ev @2730
    _ZN6google8protobuf14ServiceOptionsD2Ev @2731
    _ZN6google8protobuf14SourceCodeInfo10SharedCtorEv @2732
    _ZN6google8protobuf14SourceCodeInfo10SharedDtorEv @2733
    _ZN6google8protobuf14SourceCodeInfo10descriptorEv @2734
    _ZN6google8protobuf14SourceCodeInfo16default_instanceEv @2735
    _ZN6google8protobuf14SourceCodeInfo17default_instance_E @2736 DATA
    _ZN6google8protobuf14SourceCodeInfo20kLocationFieldNumberE @2737 DATA
    _ZN6google8protobuf14SourceCodeInfo21InitAsDefaultInstanceEv @2738
    _ZN6google8protobuf14SourceCodeInfo27MergePartialFromCodedStreamEPNS0_2io16CodedInputStreamE @2739
    _ZN6google8protobuf14SourceCodeInfo4SwapEPS1_ @2740
    _ZN6google8protobuf14SourceCodeInfo5ClearEv @2741
    _ZN6google8protobuf14SourceCodeInfo8CopyFromERKNS0_7MessageE @2742
    _ZN6google8protobuf14SourceCodeInfo8CopyFromERKS1_ @2743
    _ZN6google8protobuf14SourceCodeInfo9MergeFromERKNS0_7MessageE @2744
    _ZN6google8protobuf14SourceCodeInfo9MergeFromERKS1_ @2745
    _ZN6google8protobuf14SourceCodeInfoC1ERKS1_ @2746
    _ZN6google8protobuf14SourceCodeInfoC1Ev @2747
    _ZN6google8protobuf14SourceCodeInfoC2ERKS1_ @2748
    _ZN6google8protobuf14SourceCodeInfoC2Ev @2749
    _ZN6google8protobuf14SourceCodeInfoD0Ev @2750
    _ZN6google8protobuf14SourceCodeInfoD1Ev @2751
    _ZN6google8protobuf14SourceCodeInfoD2Ev @2752
    _ZN6google8protobuf15CEscapeInternalEPKciPcibb @2753
    _ZN6google8protobuf15CheckFieldIndexEPKNS0_15FieldDescriptorEi @2754
    _ZN6google8protobuf15DelocalizeRadixEPc @2755
    _ZN6google8protobuf15DescriptorProto10SharedCtorEv @2756
    _ZN6google8protobuf15DescriptorProto10SharedDtorEv @2757
    _ZN6google8protobuf15DescriptorProto10descriptorEv @2758
    _ZN6google8protobuf15DescriptorProto16default_instanceEv @2759
    _ZN6google8protobuf15DescriptorProto16kNameFieldNumberE @2760 DATA
    _ZN6google8protobuf15DescriptorProto17default_instance_E @2761 DATA
    _ZN6google8protobuf15DescriptorProto17kFieldFieldNumberE @2762 DATA
    _ZN6google8protobuf15DescriptorProto19kOptionsFieldNumberE @2763 DATA
    _ZN6google8protobuf15DescriptorProto20kEnumTypeFieldNumberE @2764 DATA
    _ZN6google8protobuf15DescriptorProto21InitAsDefaultInstanceEv @2765
    _ZN6google8protobuf15DescriptorProto21kExtensionFieldNumberE @2766 DATA
    _ZN6google8protobuf15DescriptorProto21kOneofDeclFieldNumberE @2767 DATA
    _ZN6google8protobuf15DescriptorProto22kNestedTypeFieldNumberE @2768 DATA
    _ZN6google8protobuf15DescriptorProto26kExtensionRangeFieldNumberE @2769 DATA
    _ZN6google8protobuf15DescriptorProto27MergePartialFromCodedStreamEPNS0_2io16CodedInputStreamE @2770
    _ZN6google8protobuf15DescriptorProto4SwapEPS1_ @2771
    _ZN6google8protobuf15DescriptorProto5ClearEv @2772
    _ZN6google8protobuf15DescriptorProto8CopyFromERKNS0_7MessageE @2773
    _ZN6google8protobuf15DescriptorProto8CopyFromERKS1_ @2774
    _ZN6google8protobuf15DescriptorProto9MergeFromERKNS0_7MessageE @2775
    _ZN6google8protobuf15DescriptorProto9MergeFromERKS1_ @2776
    _ZN6google8protobuf15DescriptorProtoC1ERKS1_ @2777
    _ZN6google8protobuf15DescriptorProtoC1Ev @2778
    _ZN6google8protobuf15DescriptorProtoC2ERKS1_ @2779
    _ZN6google8protobuf15DescriptorProtoC2Ev @2780
    _ZN6google8protobuf15DescriptorProtoD0Ev @2781
    _ZN6google8protobuf15DescriptorProtoD1Ev @2782
    _ZN6google8protobuf15DescriptorProtoD2Ev @2783
    _ZN6google8protobuf15FastHexToBufferEiPc @2784
    _ZN6google8protobuf15FieldDescriptor10kMaxNumberE @2785 DATA
    _ZN6google8protobuf15FieldDescriptor11kTypeToNameE @2786 DATA
    _ZN6google8protobuf15FieldDescriptor12kLabelToNameE @2787 DATA
    _ZN6google8protobuf15FieldDescriptor14kCppTypeToNameE @2788 DATA
    _ZN6google8protobuf15FieldDescriptor17kTypeToCppTypeMapE @2789 DATA
    _ZN6google8protobuf15FieldDescriptor19kLastReservedNumberE @2790 DATA
    _ZN6google8protobuf15FieldDescriptor20kFirstReservedNumberE @2791 DATA
    _ZN6google8protobuf15UnknownFieldSet10AddFixed32Eij @2792
    _ZN6google8protobuf15UnknownFieldSet10AddFixed64Eiy @2793
    _ZN6google8protobuf15UnknownFieldSet13ClearFallbackEv @2794
    _ZN6google8protobuf15UnknownFieldSet14DeleteByNumberEi @2795
    _ZN6google8protobuf15UnknownFieldSet14DeleteSubrangeEii @2796
    _ZN6google8protobuf15UnknownFieldSet14ParseFromArrayEPKvi @2797
    _ZN6google8protobuf15UnknownFieldSet18AddLengthDelimitedEi @2798
    _ZN6google8protobuf15UnknownFieldSet18ClearAndFreeMemoryEv @2799
    _ZN6google8protobuf15UnknownFieldSet20MergeFromCodedStreamEPNS0_2io16CodedInputStreamE @2800
    _ZN6google8protobuf15UnknownFieldSet20ParseFromCodedStreamEPNS0_2io16CodedInputStreamE @2801
    _ZN6google8protobuf15UnknownFieldSet23ParseFromZeroCopyStreamEPNS0_2io19ZeroCopyInputStreamE @2802
    _ZN6google8protobuf15UnknownFieldSet8AddFieldERKNS0_12UnknownFieldE @2803
    _ZN6google8protobuf15UnknownFieldSet8AddGroupEi @2804
    _ZN6google8protobuf15UnknownFieldSet9AddVarintEiy @2805
    _ZN6google8protobuf15UnknownFieldSet9MergeFromERKS1_ @2806
    _ZN6google8protobuf15UnknownFieldSetC1Ev @2807
    _ZN6google8protobuf15UnknownFieldSetC2Ev @2808
    _ZN6google8protobuf15UnknownFieldSetD1Ev @2809
    _ZN6google8protobuf15UnknownFieldSetD2Ev @2810
    _ZN6google8protobuf15strto32_adaptorEPKcPPci @2811
    _ZN6google8protobuf16EnumValueOptions10SharedCtorEv @2812
    _ZN6google8protobuf16EnumValueOptions10SharedDtorEv @2813
    _ZN6google8protobuf16EnumValueOptions10descriptorEv @2814
    _ZN6google8protobuf16EnumValueOptions16default_instanceEv @2815
    _ZN6google8protobuf16EnumValueOptions17default_instance_E @2816 DATA
    _ZN6google8protobuf16EnumValueOptions21InitAsDefaultInstanceEv @2817
    _ZN6google8protobuf16EnumValueOptions22kDeprecatedFieldNumberE @2818 DATA
    _ZN6google8protobuf16EnumValueOptions27MergePartialFromCodedStreamEPNS0_2io16CodedInputStreamE @2819
    _ZN6google8protobuf16EnumValueOptions31kUninterpretedOptionFieldNumberE @2820 DATA
    _ZN6google8protobuf16EnumValueOptions4SwapEPS1_ @2821
    _ZN6google8protobuf16EnumValueOptions5ClearEv @2822
    _ZN6google8protobuf16EnumValueOptions8CopyFromERKNS0_7MessageE @2823
    _ZN6google8protobuf16EnumValueOptions8CopyFromERKS1_ @2824
    _ZN6google8protobuf16EnumValueOptions9MergeFromERKNS0_7MessageE @2825
    _ZN6google8protobuf16EnumValueOptions9MergeFromERKS1_ @2826
    _ZN6google8protobuf16EnumValueOptionsC1ERKS1_ @2827
    _ZN6google8protobuf16EnumValueOptionsC1Ev @2828
    _ZN6google8protobuf16EnumValueOptionsC2ERKS1_ @2829
    _ZN6google8protobuf16EnumValueOptionsC2Ev @2830
    _ZN6google8protobuf16EnumValueOptionsD0Ev @2831
    _ZN6google8protobuf16EnumValueOptionsD1Ev @2832
    _ZN6google8protobuf16EnumValueOptionsD2Ev @2833
    _ZN6google8protobuf16SplitStringUsingERKSsPKcPSt6vectorISsSaISsEE @2834
    _ZN6google8protobuf16strtou32_adaptorEPKcPPci @2835
    _ZN6google8protobuf17DescriptorBuilder10AddPackageERKSsRKNS0_7MessageEPKNS0_14FileDescriptorE @2836
    _ZN6google8protobuf17DescriptorBuilder10AddWarningERKSsRKNS0_7MessageENS0_14DescriptorPool14ErrorCollector13ErrorLocationES3_ @2837
    _ZN6google8protobuf17DescriptorBuilder10BuildOneofERKNS0_20OneofDescriptorProtoEPNS0_10DescriptorEPNS0_15OneofDescriptorE @2838
    _ZN6google8protobuf17DescriptorBuilder11BuildMethodERKNS0_21MethodDescriptorProtoEPKNS0_17ServiceDescriptorEPNS0_16MethodDescriptorE @2839
    _ZN6google8protobuf17DescriptorBuilder11IsInPackageEPKNS0_14FileDescriptorERKSs @2840
    _ZN6google8protobuf17DescriptorBuilder12BuildMessageERKNS0_15DescriptorProtoEPKNS0_10DescriptorEPS5_ @2841
    _ZN6google8protobuf17DescriptorBuilder12BuildServiceERKNS0_22ServiceDescriptorProtoEPKvPNS0_17ServiceDescriptorE @2842
    _ZN6google8protobuf17DescriptorBuilder13CrossLinkEnumEPNS0_14EnumDescriptorERKNS0_19EnumDescriptorProtoE @2843
    _ZN6google8protobuf17DescriptorBuilder13CrossLinkFileEPNS0_14FileDescriptorERKNS0_19FileDescriptorProtoE @2844
    _ZN6google8protobuf17DescriptorBuilder14AddImportErrorERKNS0_19FileDescriptorProtoEi @2845
    _ZN6google8protobuf17DescriptorBuilder14BuildEnumValueERKNS0_24EnumValueDescriptorProtoEPKNS0_14EnumDescriptorEPNS0_19EnumValueDescriptorE @2846
    _ZN6google8protobuf17DescriptorBuilder14CrossLinkFieldEPNS0_15FieldDescriptorERKNS0_20FieldDescriptorProtoE @2847
    _ZN6google8protobuf17DescriptorBuilder14ValidateMapKeyEPNS0_15FieldDescriptorERKNS0_20FieldDescriptorProtoE @2848
    _ZN6google8protobuf17DescriptorBuilder15AllocateOptionsERKNS0_11FileOptionsEPNS0_14FileDescriptorE @2849
    _ZN6google8protobuf17DescriptorBuilder15CrossLinkMethodEPNS0_16MethodDescriptorERKNS0_21MethodDescriptorProtoE @2850
    _ZN6google8protobuf17DescriptorBuilder16CrossLinkMessageEPNS0_10DescriptorERKNS0_15DescriptorProtoE @2851
    _ZN6google8protobuf17DescriptorBuilder16CrossLinkServiceEPNS0_17ServiceDescriptorERKNS0_22ServiceDescriptorProtoE @2852
    _ZN6google8protobuf17DescriptorBuilder17OptionInterpreter14SetOptionValueEPKNS0_15FieldDescriptorEPNS0_15UnknownFieldSetE @2853
    _ZN6google8protobuf17DescriptorBuilder17OptionInterpreter18SetAggregateOptionEPKNS0_15FieldDescriptorEPNS0_15UnknownFieldSetE @2854
    _ZN6google8protobuf17DescriptorBuilder17OptionInterpreter20ExamineIfOptionIsSetEN9__gnu_cxx17__normal_iteratorIPKPKNS0_15FieldDescriptorESt6vectorIS7_SaIS7_EEEESD_S7_RKSsRKNS0_15UnknownFieldSetE @2855
    _ZN6google8protobuf17DescriptorBuilder17OptionInterpreter21AggregateOptionFinderD0Ev @2856
    _ZN6google8protobuf17DescriptorBuilder17OptionInterpreter21AggregateOptionFinderD1Ev @2857
    _ZN6google8protobuf17DescriptorBuilder17OptionInterpreter21InterpretSingleOptionEPNS0_7MessageE @2858
    _ZN6google8protobuf17DescriptorBuilder17OptionInterpreter22AddWithoutInterpretingERKNS0_19UninterpretedOptionEPNS0_7MessageE @2859
    _ZN6google8protobuf17DescriptorBuilder17OptionInterpreter8SetInt32EiiNS0_15FieldDescriptor4TypeEPNS0_15UnknownFieldSetE @2860
    _ZN6google8protobuf17DescriptorBuilder17OptionInterpreter8SetInt64EixNS0_15FieldDescriptor4TypeEPNS0_15UnknownFieldSetE @2861
    _ZN6google8protobuf17DescriptorBuilder17OptionInterpreter9SetUInt32EijNS0_15FieldDescriptor4TypeEPNS0_15UnknownFieldSetE @2862
    _ZN6google8protobuf17DescriptorBuilder17OptionInterpreter9SetUInt64EiyNS0_15FieldDescriptor4TypeEPNS0_15UnknownFieldSetE @2863
    _ZN6google8protobuf17DescriptorBuilder17OptionInterpreterC1EPS1_ @2864
    _ZN6google8protobuf17DescriptorBuilder17OptionInterpreterC2EPS1_ @2865
    _ZN6google8protobuf17DescriptorBuilder17OptionInterpreterD1Ev @2866
    _ZN6google8protobuf17DescriptorBuilder17OptionInterpreterD2Ev @2867
    _ZN6google8protobuf17DescriptorBuilder18AddNotDefinedErrorERKSsRKNS0_7MessageENS0_14DescriptorPool14ErrorCollector13ErrorLocationES3_ @2868
    _ZN6google8protobuf17DescriptorBuilder18CrossLinkEnumValueEPNS0_19EnumValueDescriptorERKNS0_24EnumValueDescriptorProtoE @2869
    _ZN6google8protobuf17DescriptorBuilder18NewPlaceholderFileERKSs @2870
    _ZN6google8protobuf17DescriptorBuilder18ValidateSymbolNameERKSsS3_RKNS0_7MessageE @2871
    _ZN6google8protobuf17DescriptorBuilder19AddTwiceListedErrorERKNS0_19FileDescriptorProtoEi @2872
    _ZN6google8protobuf17DescriptorBuilder19AllocateOptionsImplINS0_10DescriptorEEEvRKSsS5_RKNT_11OptionsTypeEPS6_ @2873
    _ZN6google8protobuf17DescriptorBuilder19AllocateOptionsImplINS0_14EnumDescriptorEEEvRKSsS5_RKNT_11OptionsTypeEPS6_ @2874
    _ZN6google8protobuf17DescriptorBuilder19AllocateOptionsImplINS0_14FileDescriptorEEEvRKSsS5_RKNT_11OptionsTypeEPS6_ @2875
    _ZN6google8protobuf17DescriptorBuilder19AllocateOptionsImplINS0_15FieldDescriptorEEEvRKSsS5_RKNT_11OptionsTypeEPS6_ @2876
    _ZN6google8protobuf17DescriptorBuilder19AllocateOptionsImplINS0_16MethodDescriptorEEEvRKSsS5_RKNT_11OptionsTypeEPS6_ @2877
    _ZN6google8protobuf17DescriptorBuilder19AllocateOptionsImplINS0_17ServiceDescriptorEEEvRKSsS5_RKNT_11OptionsTypeEPS6_ @2878
    _ZN6google8protobuf17DescriptorBuilder19AllocateOptionsImplINS0_19EnumValueDescriptorEEEvRKSsS5_RKNT_11OptionsTypeEPS6_ @2879
    _ZN6google8protobuf17DescriptorBuilder19BuildExtensionRangeERKNS0_30DescriptorProto_ExtensionRangeEPKNS0_10DescriptorEPNS5_14ExtensionRangeE @2880
    _ZN6google8protobuf17DescriptorBuilder19LogUnusedDependencyEPKNS0_14FileDescriptorE @2881
    _ZN6google8protobuf17DescriptorBuilder19ValidateEnumOptionsEPNS0_14EnumDescriptorERKNS0_19EnumDescriptorProtoE @2882
    _ZN6google8protobuf17DescriptorBuilder19ValidateFileOptionsEPNS0_14FileDescriptorERKNS0_19FileDescriptorProtoE @2883
    _ZN6google8protobuf17DescriptorBuilder20ValidateFieldOptionsEPNS0_15FieldDescriptorERKNS0_20FieldDescriptorProtoE @2884
    _ZN6google8protobuf17DescriptorBuilder21BuildFieldOrExtensionERKNS0_20FieldDescriptorProtoEPKNS0_10DescriptorEPNS0_15FieldDescriptorEb @2885
    _ZN6google8protobuf17DescriptorBuilder21ValidateMethodOptionsEPNS0_16MethodDescriptorERKNS0_21MethodDescriptorProtoE @2886
    _ZN6google8protobuf17DescriptorBuilder21ValidateQualifiedNameERKSs @2887
    _ZN6google8protobuf17DescriptorBuilder22ValidateMessageOptionsEPNS0_10DescriptorERKNS0_15DescriptorProtoE @2888
    _ZN6google8protobuf17DescriptorBuilder22ValidateServiceOptionsEPNS0_17ServiceDescriptorERKNS0_22ServiceDescriptorProtoE @2889
    _ZN6google8protobuf17DescriptorBuilder23AddRecursiveImportErrorERKNS0_19FileDescriptorProtoEi @2890
    _ZN6google8protobuf17DescriptorBuilder24RecordPublicDependenciesEPKNS0_14FileDescriptorE @2891
    _ZN6google8protobuf17DescriptorBuilder24ValidateEnumValueOptionsEPNS0_19EnumValueDescriptorERKNS0_24EnumValueDescriptorProtoE @2892
    _ZN6google8protobuf17DescriptorBuilder8AddErrorERKSsRKNS0_7MessageENS0_14DescriptorPool14ErrorCollector13ErrorLocationEPKc @2893
    _ZN6google8protobuf17DescriptorBuilder8AddErrorERKSsRKNS0_7MessageENS0_14DescriptorPool14ErrorCollector13ErrorLocationES3_ @2894
    _ZN6google8protobuf17DescriptorBuilder9BuildEnumERKNS0_19EnumDescriptorProtoEPKNS0_10DescriptorEPNS0_14EnumDescriptorE @2895
    _ZN6google8protobuf17DescriptorBuilder9BuildFileERKNS0_19FileDescriptorProtoE @2896
    _ZN6google8protobuf17DescriptorBuilderC1EPKNS0_14DescriptorPoolEPNS2_6TablesEPNS2_14ErrorCollectorE @2897
    _ZN6google8protobuf17DescriptorBuilderC2EPKNS0_14DescriptorPoolEPNS2_6TablesEPNS2_14ErrorCollectorE @2898
    _ZN6google8protobuf17DescriptorBuilderD1Ev @2899
    _ZN6google8protobuf17DescriptorBuilderD2Ev @2900
    _ZN6google8protobuf17FastHex32ToBufferEjPc @2901
    _ZN6google8protobuf17FastHex64ToBufferEyPc @2902
    _ZN6google8protobuf17FastInt32ToBufferEiPc @2903
    _ZN6google8protobuf17FastInt64ToBufferExPc @2904
    _ZN6google8protobuf17FileDescriptorSet10SharedCtorEv @2905
    _ZN6google8protobuf17FileDescriptorSet10SharedDtorEv @2906
    _ZN6google8protobuf17FileDescriptorSet10descriptorEv @2907
    _ZN6google8protobuf17FileDescriptorSet16default_instanceEv @2908
    _ZN6google8protobuf17FileDescriptorSet16kFileFieldNumberE @2909 DATA
    _ZN6google8protobuf17FileDescriptorSet17default_instance_E @2910 DATA
    _ZN6google8protobuf17FileDescriptorSet21InitAsDefaultInstanceEv @2911
    _ZN6google8protobuf17FileDescriptorSet27MergePartialFromCodedStreamEPNS0_2io16CodedInputStreamE @2912
    _ZN6google8protobuf17FileDescriptorSet4SwapEPS1_ @2913
    _ZN6google8protobuf17FileDescriptorSet5ClearEv @2914
    _ZN6google8protobuf17FileDescriptorSet8CopyFromERKNS0_7MessageE @2915
    _ZN6google8protobuf17FileDescriptorSet8CopyFromERKS1_ @2916
    _ZN6google8protobuf17FileDescriptorSet9MergeFromERKNS0_7MessageE @2917
    _ZN6google8protobuf17FileDescriptorSet9MergeFromERKS1_ @2918
    _ZN6google8protobuf17FileDescriptorSetC1ERKS1_ @2919
    _ZN6google8protobuf17FileDescriptorSetC1Ev @2920
    _ZN6google8protobuf17FileDescriptorSetC2ERKS1_ @2921
    _ZN6google8protobuf17FileDescriptorSetC2Ev @2922
    _ZN6google8protobuf17FileDescriptorSetD0Ev @2923
    _ZN6google8protobuf17FileDescriptorSetD1Ev @2924
    _ZN6google8protobuf17FileDescriptorSetD2Ev @2925
    _ZN6google8protobuf18DescriptorDatabase23FindAllExtensionNumbersERKSsPSt6vectorIiSaIiEE @2926
    _ZN6google8protobuf18DescriptorDatabaseD0Ev @2927
    _ZN6google8protobuf18DescriptorDatabaseD1Ev @2928
    _ZN6google8protobuf18DescriptorDatabaseD2Ev @2929
    _ZN6google8protobuf18GoogleOnceInitImplEPiPNS0_7ClosureE @2930
    _ZN6google8protobuf18InsertIfNotPresentINS0_8hash_mapISt4pairIPKNS0_11MessageLiteEiENS0_8internal13ExtensionInfoENS0_4hashIS7_EESt8equal_toIS7_EEEEEbPT_RKNSF_10value_type10first_typeERKNSH_11second_typeE @2931
    _ZN6google8protobuf18InsertIfNotPresentISt3mapISsSt4pairIPKviESt4lessISsESaIS3_IKSsS6_EEEEEbPT_RKNSD_10value_type10first_typeERKNSF_11second_typeE @2932
    _ZN6google8protobuf18InsertIfNotPresentISt3mapISt4pairISsiEPKNS0_19FileDescriptorProtoESt4lessIS4_ESaIS3_IKS4_S7_EEEEEbPT_RKNSE_10value_type10first_typeERKNSG_11second_typeE @2933
    _ZN6google8protobuf18InsertIfNotPresentISt3mapISt4pairISsiES3_IPKviESt4lessIS4_ESaIS3_IKS4_S7_EEEEEbPT_RKNSE_10value_type10first_typeERKNSG_11second_typeE @2934
    _ZN6google8protobuf18StringPrintfVectorEPKcRKSt6vectorISsSaISsEE @2935
    _ZN6google8protobuf19EnumDescriptorProto10SharedCtorEv @2936
    _ZN6google8protobuf19EnumDescriptorProto10SharedDtorEv @2937
    _ZN6google8protobuf19EnumDescriptorProto10descriptorEv @2938
    _ZN6google8protobuf19EnumDescriptorProto16default_instanceEv @2939
    _ZN6google8protobuf19EnumDescriptorProto16kNameFieldNumberE @2940 DATA
    _ZN6google8protobuf19EnumDescriptorProto17default_instance_E @2941 DATA
    _ZN6google8protobuf19EnumDescriptorProto17kValueFieldNumberE @2942 DATA
    _ZN6google8protobuf19EnumDescriptorProto19kOptionsFieldNumberE @2943 DATA
    _ZN6google8protobuf19EnumDescriptorProto21InitAsDefaultInstanceEv @2944
    _ZN6google8protobuf19EnumDescriptorProto27MergePartialFromCodedStreamEPNS0_2io16CodedInputStreamE @2945
    _ZN6google8protobuf19EnumDescriptorProto4SwapEPS1_ @2946
    _ZN6google8protobuf19EnumDescriptorProto5ClearEv @2947
    _ZN6google8protobuf19EnumDescriptorProto8CopyFromERKNS0_7MessageE @2948
    _ZN6google8protobuf19EnumDescriptorProto8CopyFromERKS1_ @2949
    _ZN6google8protobuf19EnumDescriptorProto9MergeFromERKNS0_7MessageE @2950
    _ZN6google8protobuf19EnumDescriptorProto9MergeFromERKS1_ @2951
    _ZN6google8protobuf19EnumDescriptorProtoC1ERKS1_ @2952
    _ZN6google8protobuf19EnumDescriptorProtoC1Ev @2953
    _ZN6google8protobuf19EnumDescriptorProtoC2ERKS1_ @2954
    _ZN6google8protobuf19EnumDescriptorProtoC2Ev @2955
    _ZN6google8protobuf19EnumDescriptorProtoD0Ev @2956
    _ZN6google8protobuf19EnumDescriptorProtoD1Ev @2957
    _ZN6google8protobuf19EnumDescriptorProtoD2Ev @2958
    _ZN6google8protobuf19FileDescriptorProto10SharedCtorEv @2959
    _ZN6google8protobuf19FileDescriptorProto10SharedDtorEv @2960
    _ZN6google8protobuf19FileDescriptorProto10descriptorEv @2961
    _ZN6google8protobuf19FileDescriptorProto16default_instanceEv @2962
    _ZN6google8protobuf19FileDescriptorProto16kNameFieldNumberE @2963 DATA
    _ZN6google8protobuf19FileDescriptorProto17default_instance_E @2964 DATA
    _ZN6google8protobuf19FileDescriptorProto19kOptionsFieldNumberE @2965 DATA
    _ZN6google8protobuf19FileDescriptorProto19kPackageFieldNumberE @2966 DATA
    _ZN6google8protobuf19FileDescriptorProto19kServiceFieldNumberE @2967 DATA
    _ZN6google8protobuf19FileDescriptorProto20kEnumTypeFieldNumberE @2968 DATA
    _ZN6google8protobuf19FileDescriptorProto21InitAsDefaultInstanceEv @2969
    _ZN6google8protobuf19FileDescriptorProto21kExtensionFieldNumberE @2970 DATA
    _ZN6google8protobuf19FileDescriptorProto22kDependencyFieldNumberE @2971 DATA
    _ZN6google8protobuf19FileDescriptorProto23kMessageTypeFieldNumberE @2972 DATA
    _ZN6google8protobuf19FileDescriptorProto26kSourceCodeInfoFieldNumberE @2973 DATA
    _ZN6google8protobuf19FileDescriptorProto26kWeakDependencyFieldNumberE @2974 DATA
    _ZN6google8protobuf19FileDescriptorProto27MergePartialFromCodedStreamEPNS0_2io16CodedInputStreamE @2975
    _ZN6google8protobuf19FileDescriptorProto28kPublicDependencyFieldNumberE @2976 DATA
    _ZN6google8protobuf19FileDescriptorProto4SwapEPS1_ @2977
    _ZN6google8protobuf19FileDescriptorProto5ClearEv @2978
    _ZN6google8protobuf19FileDescriptorProto8CopyFromERKNS0_7MessageE @2979
    _ZN6google8protobuf19FileDescriptorProto8CopyFromERKS1_ @2980
    _ZN6google8protobuf19FileDescriptorProto9MergeFromERKNS0_7MessageE @2981
    _ZN6google8protobuf19FileDescriptorProto9MergeFromERKS1_ @2982
    _ZN6google8protobuf19FileDescriptorProtoC1ERKS1_ @2983
    _ZN6google8protobuf19FileDescriptorProtoC1Ev @2984
    _ZN6google8protobuf19FileDescriptorProtoC2ERKS1_ @2985
    _ZN6google8protobuf19FileDescriptorProtoC2Ev @2986
    _ZN6google8protobuf19FileDescriptorProtoD0Ev @2987
    _ZN6google8protobuf19FileDescriptorProtoD1Ev @2988
    _ZN6google8protobuf19FileDescriptorProtoD2Ev @2989
    _ZN6google8protobuf19UninterpretedOption10SharedCtorEv @2990
    _ZN6google8protobuf19UninterpretedOption10SharedDtorEv @2991
    _ZN6google8protobuf19UninterpretedOption10descriptorEv @2992
    _ZN6google8protobuf19UninterpretedOption16default_instanceEv @2993
    _ZN6google8protobuf19UninterpretedOption16kNameFieldNumberE @2994 DATA
    _ZN6google8protobuf19UninterpretedOption17default_instance_E @2995 DATA
    _ZN6google8protobuf19UninterpretedOption21InitAsDefaultInstanceEv @2996
    _ZN6google8protobuf19UninterpretedOption23kDoubleValueFieldNumberE @2997 DATA
    _ZN6google8protobuf19UninterpretedOption23kStringValueFieldNumberE @2998 DATA
    _ZN6google8protobuf19UninterpretedOption26kAggregateValueFieldNumberE @2999 DATA
    _ZN6google8protobuf19UninterpretedOption27MergePartialFromCodedStreamEPNS0_2io16CodedInputStreamE @3000
    _ZN6google8protobuf19UninterpretedOption27kIdentifierValueFieldNumberE @3001 DATA
    _ZN6google8protobuf19UninterpretedOption28kNegativeIntValueFieldNumberE @3002 DATA
    _ZN6google8protobuf19UninterpretedOption28kPositiveIntValueFieldNumberE @3003 DATA
    _ZN6google8protobuf19UninterpretedOption4SwapEPS1_ @3004
    _ZN6google8protobuf19UninterpretedOption5ClearEv @3005
    _ZN6google8protobuf19UninterpretedOption8CopyFromERKNS0_7MessageE @3006
    _ZN6google8protobuf19UninterpretedOption8CopyFromERKS1_ @3007
    _ZN6google8protobuf19UninterpretedOption9MergeFromERKNS0_7MessageE @3008
    _ZN6google8protobuf19UninterpretedOption9MergeFromERKS1_ @3009
    _ZN6google8protobuf19UninterpretedOptionC1ERKS1_ @3010
    _ZN6google8protobuf19UninterpretedOptionC1Ev @3011
    _ZN6google8protobuf19UninterpretedOptionC2ERKS1_ @3012
    _ZN6google8protobuf19UninterpretedOptionC2Ev @3013
    _ZN6google8protobuf19UninterpretedOptionD0Ev @3014
    _ZN6google8protobuf19UninterpretedOptionD1Ev @3015
    _ZN6google8protobuf19UninterpretedOptionD2Ev @3016
    _ZN6google8protobuf20FieldDescriptorProto10SharedCtorEv @3017
    _ZN6google8protobuf20FieldDescriptorProto10SharedDtorEv @3018
    _ZN6google8protobuf20FieldDescriptorProto10TYPE_BYTESE @3019 DATA
    _ZN6google8protobuf20FieldDescriptorProto10TYPE_FLOATE @3020 DATA
    _ZN6google8protobuf20FieldDescriptorProto10TYPE_GROUPE @3021 DATA
    _ZN6google8protobuf20FieldDescriptorProto10TYPE_INT32E @3022 DATA
    _ZN6google8protobuf20FieldDescriptorProto10TYPE_INT64E @3023 DATA
    _ZN6google8protobuf20FieldDescriptorProto10descriptorEv @3024
    _ZN6google8protobuf20FieldDescriptorProto11TYPE_DOUBLEE @3025 DATA
    _ZN6google8protobuf20FieldDescriptorProto11TYPE_SINT32E @3026 DATA
    _ZN6google8protobuf20FieldDescriptorProto11TYPE_SINT64E @3027 DATA
    _ZN6google8protobuf20FieldDescriptorProto11TYPE_STRINGE @3028 DATA
    _ZN6google8protobuf20FieldDescriptorProto11TYPE_UINT32E @3029 DATA
    _ZN6google8protobuf20FieldDescriptorProto11TYPE_UINT64E @3030 DATA
    _ZN6google8protobuf20FieldDescriptorProto12TYPE_FIXED32E @3031 DATA
    _ZN6google8protobuf20FieldDescriptorProto12TYPE_FIXED64E @3032 DATA
    _ZN6google8protobuf20FieldDescriptorProto12TYPE_MESSAGEE @3033 DATA
    _ZN6google8protobuf20FieldDescriptorProto13TYPE_SFIXED32E @3034 DATA
    _ZN6google8protobuf20FieldDescriptorProto13TYPE_SFIXED64E @3035 DATA
    _ZN6google8protobuf20FieldDescriptorProto14LABEL_OPTIONALE @3036 DATA
    _ZN6google8protobuf20FieldDescriptorProto14LABEL_REPEATEDE @3037 DATA
    _ZN6google8protobuf20FieldDescriptorProto14LABEL_REQUIREDE @3038 DATA
    _ZN6google8protobuf20FieldDescriptorProto14Type_ARRAYSIZEE @3039 DATA
    _ZN6google8protobuf20FieldDescriptorProto15Label_ARRAYSIZEE @3040 DATA
    _ZN6google8protobuf20FieldDescriptorProto16default_instanceEv @3041
    _ZN6google8protobuf20FieldDescriptorProto16kNameFieldNumberE @3042 DATA
    _ZN6google8protobuf20FieldDescriptorProto16kTypeFieldNumberE @3043 DATA
    _ZN6google8protobuf20FieldDescriptorProto17default_instance_E @3044 DATA
    _ZN6google8protobuf20FieldDescriptorProto17kLabelFieldNumberE @3045 DATA
    _ZN6google8protobuf20FieldDescriptorProto18kNumberFieldNumberE @3046 DATA
    _ZN6google8protobuf20FieldDescriptorProto19kOptionsFieldNumberE @3047 DATA
    _ZN6google8protobuf20FieldDescriptorProto20kExtendeeFieldNumberE @3048 DATA
    _ZN6google8protobuf20FieldDescriptorProto20kTypeNameFieldNumberE @3049 DATA
    _ZN6google8protobuf20FieldDescriptorProto21InitAsDefaultInstanceEv @3050
    _ZN6google8protobuf20FieldDescriptorProto22kOneofIndexFieldNumberE @3051 DATA
    _ZN6google8protobuf20FieldDescriptorProto24kDefaultValueFieldNumberE @3052 DATA
    _ZN6google8protobuf20FieldDescriptorProto27MergePartialFromCodedStreamEPNS0_2io16CodedInputStreamE @3053
    _ZN6google8protobuf20FieldDescriptorProto4SwapEPS1_ @3054
    _ZN6google8protobuf20FieldDescriptorProto5ClearEv @3055
    _ZN6google8protobuf20FieldDescriptorProto8CopyFromERKNS0_7MessageE @3056
    _ZN6google8protobuf20FieldDescriptorProto8CopyFromERKS1_ @3057
    _ZN6google8protobuf20FieldDescriptorProto8Type_MAXE @3058 DATA
    _ZN6google8protobuf20FieldDescriptorProto8Type_MINE @3059 DATA
    _ZN6google8protobuf20FieldDescriptorProto9Label_MAXE @3060 DATA
    _ZN6google8protobuf20FieldDescriptorProto9Label_MINE @3061 DATA
    _ZN6google8protobuf20FieldDescriptorProto9MergeFromERKNS0_7MessageE @3062
    _ZN6google8protobuf20FieldDescriptorProto9MergeFromERKS1_ @3063
    _ZN6google8protobuf20FieldDescriptorProto9TYPE_BOOLE @3064 DATA
    _ZN6google8protobuf20FieldDescriptorProto9TYPE_ENUME @3065 DATA
    _ZN6google8protobuf20FieldDescriptorProtoC1ERKS1_ @3066
    _ZN6google8protobuf20FieldDescriptorProtoC1Ev @3067
    _ZN6google8protobuf20FieldDescriptorProtoC2ERKS1_ @3068
    _ZN6google8protobuf20FieldDescriptorProtoC2Ev @3069
    _ZN6google8protobuf20FieldDescriptorProtoD0Ev @3070
    _ZN6google8protobuf20FieldDescriptorProtoD1Ev @3071
    _ZN6google8protobuf20FieldDescriptorProtoD2Ev @3072
    _ZN6google8protobuf20FileDescriptorTables16AddFieldByNumberEPKNS0_15FieldDescriptorE @3073
    _ZN6google8protobuf20FileDescriptorTables20AddEnumValueByNumberEPKNS0_19EnumValueDescriptorE @3074
    _ZN6google8protobuf20FileDescriptorTables20BuildLocationsByPathEPSt4pairIPKS1_PKNS0_14SourceCodeInfoEE @3075
    _ZN6google8protobuf20FileDescriptorTables23AddFieldByStylizedNamesEPKNS0_15FieldDescriptorE @3076
    _ZN6google8protobuf20FileDescriptorTables6kEmptyE @3077 DATA
    _ZN6google8protobuf20FileDescriptorTablesC1Ev @3078
    _ZN6google8protobuf20FileDescriptorTablesC2Ev @3079
    _ZN6google8protobuf20FileDescriptorTablesD1Ev @3080
    _ZN6google8protobuf20FileDescriptorTablesD2Ev @3081
    _ZN6google8protobuf20OneofDescriptorProto10SharedCtorEv @3082
    _ZN6google8protobuf20OneofDescriptorProto10SharedDtorEv @3083
    _ZN6google8protobuf20OneofDescriptorProto10descriptorEv @3084
    _ZN6google8protobuf20OneofDescriptorProto16default_instanceEv @3085
    _ZN6google8protobuf20OneofDescriptorProto16kNameFieldNumberE @3086 DATA
    _ZN6google8protobuf20OneofDescriptorProto17default_instance_E @3087 DATA
    _ZN6google8protobuf20OneofDescriptorProto21InitAsDefaultInstanceEv @3088
    _ZN6google8protobuf20OneofDescriptorProto27MergePartialFromCodedStreamEPNS0_2io16CodedInputStreamE @3089
    _ZN6google8protobuf20OneofDescriptorProto4SwapEPS1_ @3090
    _ZN6google8protobuf20OneofDescriptorProto5ClearEv @3091
    _ZN6google8protobuf20OneofDescriptorProto8CopyFromERKNS0_7MessageE @3092
    _ZN6google8protobuf20OneofDescriptorProto8CopyFromERKS1_ @3093
    _ZN6google8protobuf20OneofDescriptorProto9MergeFromERKNS0_7MessageE @3094
    _ZN6google8protobuf20OneofDescriptorProto9MergeFromERKS1_ @3095
    _ZN6google8protobuf20OneofDescriptorProtoC1ERKS1_ @3096
    _ZN6google8protobuf20OneofDescriptorProtoC1Ev @3097
    _ZN6google8protobuf20OneofDescriptorProtoC2ERKS1_ @3098
    _ZN6google8protobuf20OneofDescriptorProtoC2Ev @3099
    _ZN6google8protobuf20OneofDescriptorProtoD0Ev @3100
    _ZN6google8protobuf20OneofDescriptorProtoD1Ev @3101
    _ZN6google8protobuf20OneofDescriptorProtoD2Ev @3102
    _ZN6google8protobuf21DynamicMessageFactory12GetPrototypeEPKNS0_10DescriptorE @3103
    _ZN6google8protobuf21DynamicMessageFactory18GetPrototypeNoLockEPKNS0_10DescriptorE @3104
    _ZN6google8protobuf21DynamicMessageFactory26DeleteDefaultOneofInstanceEPKNS0_10DescriptorEPKiPv @3105
    _ZN6google8protobuf21DynamicMessageFactory29ConstructDefaultOneofInstanceEPKNS0_10DescriptorEPKiPv @3106
    _ZN6google8protobuf21DynamicMessageFactoryC1EPKNS0_14DescriptorPoolE @3107
    _ZN6google8protobuf21DynamicMessageFactoryC1Ev @3108
    _ZN6google8protobuf21DynamicMessageFactoryC2EPKNS0_14DescriptorPoolE @3109
    _ZN6google8protobuf21DynamicMessageFactoryC2Ev @3110
    _ZN6google8protobuf21DynamicMessageFactoryD0Ev @3111
    _ZN6google8protobuf21DynamicMessageFactoryD1Ev @3112
    _ZN6google8protobuf21DynamicMessageFactoryD2Ev @3113
    _ZN6google8protobuf21FastInt32ToBufferLeftEiPc @3114
    _ZN6google8protobuf21FastInt64ToBufferLeftExPc @3115
    _ZN6google8protobuf21MethodDescriptorProto10SharedCtorEv @3116
    _ZN6google8protobuf21MethodDescriptorProto10SharedDtorEv @3117
    _ZN6google8protobuf21MethodDescriptorProto10descriptorEv @3118
    _ZN6google8protobuf21MethodDescriptorProto16default_instanceEv @3119
    _ZN6google8protobuf21MethodDescriptorProto16kNameFieldNumberE @3120 DATA
    _ZN6google8protobuf21MethodDescriptorProto17default_instance_E @3121 DATA
    _ZN6google8protobuf21MethodDescriptorProto19kOptionsFieldNumberE @3122 DATA
    _ZN6google8protobuf21MethodDescriptorProto21InitAsDefaultInstanceEv @3123
    _ZN6google8protobuf21MethodDescriptorProto21kInputTypeFieldNumberE @3124 DATA
    _ZN6google8protobuf21MethodDescriptorProto22kOutputTypeFieldNumberE @3125 DATA
    _ZN6google8protobuf21MethodDescriptorProto27MergePartialFromCodedStreamEPNS0_2io16CodedInputStreamE @3126
    _ZN6google8protobuf21MethodDescriptorProto4SwapEPS1_ @3127
    _ZN6google8protobuf21MethodDescriptorProto5ClearEv @3128
    _ZN6google8protobuf21MethodDescriptorProto8CopyFromERKNS0_7MessageE @3129
    _ZN6google8protobuf21MethodDescriptorProto8CopyFromERKS1_ @3130
    _ZN6google8protobuf21MethodDescriptorProto9MergeFromERKNS0_7MessageE @3131
    _ZN6google8protobuf21MethodDescriptorProto9MergeFromERKS1_ @3132
    _ZN6google8protobuf21MethodDescriptorProtoC1ERKS1_ @3133
    _ZN6google8protobuf21MethodDescriptorProtoC1Ev @3134
    _ZN6google8protobuf21MethodDescriptorProtoC2ERKS1_ @3135
    _ZN6google8protobuf21MethodDescriptorProtoC2Ev @3136
    _ZN6google8protobuf21MethodDescriptorProtoD0Ev @3137
    _ZN6google8protobuf21MethodDescriptorProtoD1Ev @3138
    _ZN6google8protobuf21MethodDescriptorProtoD2Ev @3139
    _ZN6google8protobuf21SplitStringAllowEmptyERKSsPKcPSt6vectorISsSaISsEE @3140
    _ZN6google8protobuf21UnescapeCEscapeStringERKSs @3141
    _ZN6google8protobuf21UnescapeCEscapeStringERKSsPSs @3142
    _ZN6google8protobuf21UnescapeCEscapeStringERKSsPSsPSt6vectorISsSaISsEE @3143
    _ZN6google8protobuf22DescriptorPoolDatabase14FindFileByNameERKSsPNS0_19FileDescriptorProtoE @3144
    _ZN6google8protobuf22DescriptorPoolDatabase23FindAllExtensionNumbersERKSsPSt6vectorIiSaIiEE @3145
    _ZN6google8protobuf22DescriptorPoolDatabase24FindFileContainingSymbolERKSsPNS0_19FileDescriptorProtoE @3146
    _ZN6google8protobuf22DescriptorPoolDatabase27FindFileContainingExtensionERKSsiPNS0_19FileDescriptorProtoE @3147
    _ZN6google8protobuf22DescriptorPoolDatabaseC1ERKNS0_14DescriptorPoolE @3148
    _ZN6google8protobuf22DescriptorPoolDatabaseC2ERKNS0_14DescriptorPoolE @3149
    _ZN6google8protobuf22DescriptorPoolDatabaseD0Ev @3150
    _ZN6google8protobuf22DescriptorPoolDatabaseD1Ev @3151
    _ZN6google8protobuf22DescriptorPoolDatabaseD2Ev @3152
    _ZN6google8protobuf22FastUInt32ToBufferLeftEjPc @3153
    _ZN6google8protobuf22FastUInt64ToBufferLeftEyPc @3154
    _ZN6google8protobuf22ServiceDescriptorProto10SharedCtorEv @3155
    _ZN6google8protobuf22ServiceDescriptorProto10SharedDtorEv @3156
    _ZN6google8protobuf22ServiceDescriptorProto10descriptorEv @3157
    _ZN6google8protobuf22ServiceDescriptorProto16default_instanceEv @3158
    _ZN6google8protobuf22ServiceDescriptorProto16kNameFieldNumberE @3159 DATA
    _ZN6google8protobuf22ServiceDescriptorProto17default_instance_E @3160 DATA
    _ZN6google8protobuf22ServiceDescriptorProto18kMethodFieldNumberE @3161 DATA
    _ZN6google8protobuf22ServiceDescriptorProto19kOptionsFieldNumberE @3162 DATA
    _ZN6google8protobuf22ServiceDescriptorProto21InitAsDefaultInstanceEv @3163
    _ZN6google8protobuf22ServiceDescriptorProto27MergePartialFromCodedStreamEPNS0_2io16CodedInputStreamE @3164
    _ZN6google8protobuf22ServiceDescriptorProto4SwapEPS1_ @3165
    _ZN6google8protobuf22ServiceDescriptorProto5ClearEv @3166
    _ZN6google8protobuf22ServiceDescriptorProto8CopyFromERKNS0_7MessageE @3167
    _ZN6google8protobuf22ServiceDescriptorProto8CopyFromERKS1_ @3168
    _ZN6google8protobuf22ServiceDescriptorProto9MergeFromERKNS0_7MessageE @3169
    _ZN6google8protobuf22ServiceDescriptorProto9MergeFromERKS1_ @3170
    _ZN6google8protobuf22ServiceDescriptorProtoC1ERKS1_ @3171
    _ZN6google8protobuf22ServiceDescriptorProtoC1Ev @3172
    _ZN6google8protobuf22ServiceDescriptorProtoC2ERKS1_ @3173
    _ZN6google8protobuf22ServiceDescriptorProtoC2Ev @3174
    _ZN6google8protobuf22ServiceDescriptorProtoD0Ev @3175
    _ZN6google8protobuf22ServiceDescriptorProtoD1Ev @3176
    _ZN6google8protobuf22ServiceDescriptorProtoD2Ev @3177
    _ZN6google8protobuf23InternalFastHexToBufferEyPci @3178
    _ZN6google8protobuf23ShutdownProtobufLibraryEv @3179
    _ZN6google8protobuf23SourceCodeInfo_Location10SharedCtorEv @3180
    _ZN6google8protobuf23SourceCodeInfo_Location10SharedDtorEv @3181
    _ZN6google8protobuf23SourceCodeInfo_Location10descriptorEv @3182
    _ZN6google8protobuf23SourceCodeInfo_Location16default_instanceEv @3183
    _ZN6google8protobuf23SourceCodeInfo_Location16kPathFieldNumberE @3184 DATA
    _ZN6google8protobuf23SourceCodeInfo_Location16kSpanFieldNumberE @3185 DATA
    _ZN6google8protobuf23SourceCodeInfo_Location17default_instance_E @3186 DATA
    _ZN6google8protobuf23SourceCodeInfo_Location21InitAsDefaultInstanceEv @3187
    _ZN6google8protobuf23SourceCodeInfo_Location27MergePartialFromCodedStreamEPNS0_2io16CodedInputStreamE @3188
    _ZN6google8protobuf23SourceCodeInfo_Location27kLeadingCommentsFieldNumberE @3189 DATA
    _ZN6google8protobuf23SourceCodeInfo_Location28kTrailingCommentsFieldNumberE @3190 DATA
    _ZN6google8protobuf23SourceCodeInfo_Location4SwapEPS1_ @3191
    _ZN6google8protobuf23SourceCodeInfo_Location5ClearEv @3192
    _ZN6google8protobuf23SourceCodeInfo_Location8CopyFromERKNS0_7MessageE @3193
    _ZN6google8protobuf23SourceCodeInfo_Location8CopyFromERKS1_ @3194
    _ZN6google8protobuf23SourceCodeInfo_Location9MergeFromERKNS0_7MessageE @3195
    _ZN6google8protobuf23SourceCodeInfo_Location9MergeFromERKS1_ @3196
    _ZN6google8protobuf23SourceCodeInfo_LocationC1ERKS1_ @3197
    _ZN6google8protobuf23SourceCodeInfo_LocationC1Ev @3198
    _ZN6google8protobuf23SourceCodeInfo_LocationC2ERKS1_ @3199
    _ZN6google8protobuf23SourceCodeInfo_LocationC2Ev @3200
    _ZN6google8protobuf23SourceCodeInfo_LocationD0Ev @3201
    _ZN6google8protobuf23SourceCodeInfo_LocationD1Ev @3202
    _ZN6google8protobuf23SourceCodeInfo_LocationD2Ev @3203
    _ZN6google8protobuf24EnumValueDescriptorProto10SharedCtorEv @3204
    _ZN6google8protobuf24EnumValueDescriptorProto10SharedDtorEv @3205
    _ZN6google8protobuf24EnumValueDescriptorProto10descriptorEv @3206
    _ZN6google8protobuf24EnumValueDescriptorProto16default_instanceEv @3207
    _ZN6google8protobuf24EnumValueDescriptorProto16kNameFieldNumberE @3208 DATA
    _ZN6google8protobuf24EnumValueDescriptorProto17default_instance_E @3209 DATA
    _ZN6google8protobuf24EnumValueDescriptorProto18kNumberFieldNumberE @3210 DATA
    _ZN6google8protobuf24EnumValueDescriptorProto19kOptionsFieldNumberE @3211 DATA
    _ZN6google8protobuf24EnumValueDescriptorProto21InitAsDefaultInstanceEv @3212
    _ZN6google8protobuf24EnumValueDescriptorProto27MergePartialFromCodedStreamEPNS0_2io16CodedInputStreamE @3213
    _ZN6google8protobuf24EnumValueDescriptorProto4SwapEPS1_ @3214
    _ZN6google8protobuf24EnumValueDescriptorProto5ClearEv @3215
    _ZN6google8protobuf24EnumValueDescriptorProto8CopyFromERKNS0_7MessageE @3216
    _ZN6google8protobuf24EnumValueDescriptorProto8CopyFromERKS1_ @3217
    _ZN6google8protobuf24EnumValueDescriptorProto9MergeFromERKNS0_7MessageE @3218
    _ZN6google8protobuf24EnumValueDescriptorProto9MergeFromERKS1_ @3219
    _ZN6google8protobuf24EnumValueDescriptorProtoC1ERKS1_ @3220
    _ZN6google8protobuf24EnumValueDescriptorProtoC1Ev @3221
    _ZN6google8protobuf24EnumValueDescriptorProtoC2ERKS1_ @3222
    _ZN6google8protobuf24EnumValueDescriptorProtoC2Ev @3223
    _ZN6google8protobuf24EnumValueDescriptorProtoD0Ev @3224
    _ZN6google8protobuf24EnumValueDescriptorProtoD1Ev @3225
    _ZN6google8protobuf24EnumValueDescriptorProtoD2Ev @3226
    _ZN6google8protobuf24MergedDescriptorDatabase14FindFileByNameERKSsPNS0_19FileDescriptorProtoE @3227
    _ZN6google8protobuf24MergedDescriptorDatabase23FindAllExtensionNumbersERKSsPSt6vectorIiSaIiEE @3228
    _ZN6google8protobuf24MergedDescriptorDatabase24FindFileContainingSymbolERKSsPNS0_19FileDescriptorProtoE @3229
    _ZN6google8protobuf24MergedDescriptorDatabase27FindFileContainingExtensionERKSsiPNS0_19FileDescriptorProtoE @3230
    _ZN6google8protobuf24MergedDescriptorDatabaseC1EPNS0_18DescriptorDatabaseES3_ @3231
    _ZN6google8protobuf24MergedDescriptorDatabaseC1ERKSt6vectorIPNS0_18DescriptorDatabaseESaIS4_EE @3232
    _ZN6google8protobuf24MergedDescriptorDatabaseC2EPNS0_18DescriptorDatabaseES3_ @3233
    _ZN6google8protobuf24MergedDescriptorDatabaseC2ERKSt6vectorIPNS0_18DescriptorDatabaseESaIS4_EE @3234
    _ZN6google8protobuf24MergedDescriptorDatabaseD0Ev @3235
    _ZN6google8protobuf24MergedDescriptorDatabaseD1Ev @3236
    _ZN6google8protobuf24MergedDescriptorDatabaseD2Ev @3237
    _ZN6google8protobuf24SimpleDescriptorDatabase14FindFileByNameERKSsPNS0_19FileDescriptorProtoE @3238
    _ZN6google8protobuf24SimpleDescriptorDatabase15DescriptorIndexIPKNS0_19FileDescriptorProtoEE12AddExtensionERKNS0_20FieldDescriptorProtoES5_ @3239
    _ZN6google8protobuf24SimpleDescriptorDatabase15DescriptorIndexIPKNS0_19FileDescriptorProtoEE19AddNestedExtensionsERKNS0_15DescriptorProtoES5_ @3240
    _ZN6google8protobuf24SimpleDescriptorDatabase15DescriptorIndexIPKNS0_19FileDescriptorProtoEE19FindLastLessOrEqualERKSs @3241
    _ZN6google8protobuf24SimpleDescriptorDatabase15DescriptorIndexIPKNS0_19FileDescriptorProtoEE23FindAllExtensionNumbersERKSsPSt6vectorIiSaIiEE @3242
    _ZN6google8protobuf24SimpleDescriptorDatabase15DescriptorIndexIPKNS0_19FileDescriptorProtoEE7AddFileERS4_S5_ @3243
    _ZN6google8protobuf24SimpleDescriptorDatabase15DescriptorIndexIPKNS0_19FileDescriptorProtoEE9AddSymbolERKSsS5_ @3244
    _ZN6google8protobuf24SimpleDescriptorDatabase15DescriptorIndexISt4pairIPKviEE10FindSymbolERKSs @3245
    _ZN6google8protobuf24SimpleDescriptorDatabase15DescriptorIndexISt4pairIPKviEE12AddExtensionERKNS0_20FieldDescriptorProtoES6_ @3246
    _ZN6google8protobuf24SimpleDescriptorDatabase15DescriptorIndexISt4pairIPKviEE19AddNestedExtensionsERKNS0_15DescriptorProtoES6_ @3247
    _ZN6google8protobuf24SimpleDescriptorDatabase15DescriptorIndexISt4pairIPKviEE19FindLastLessOrEqualERKSs @3248
    _ZN6google8protobuf24SimpleDescriptorDatabase15DescriptorIndexISt4pairIPKviEE23FindAllExtensionNumbersERKSsPSt6vectorIiSaIiEE @3249
    _ZN6google8protobuf24SimpleDescriptorDatabase15DescriptorIndexISt4pairIPKviEE7AddFileERKNS0_19FileDescriptorProtoES6_ @3250
    _ZN6google8protobuf24SimpleDescriptorDatabase15DescriptorIndexISt4pairIPKviEE9AddSymbolERKSsS6_ @3251
    _ZN6google8protobuf24SimpleDescriptorDatabase23FindAllExtensionNumbersERKSsPSt6vectorIiSaIiEE @3252
    _ZN6google8protobuf24SimpleDescriptorDatabase24FindFileContainingSymbolERKSsPNS0_19FileDescriptorProtoE @3253
    _ZN6google8protobuf24SimpleDescriptorDatabase27FindFileContainingExtensionERKSsiPNS0_19FileDescriptorProtoE @3254
    _ZN6google8protobuf24SimpleDescriptorDatabase3AddERKNS0_19FileDescriptorProtoE @3255
    _ZN6google8protobuf24SimpleDescriptorDatabase9AddAndOwnEPKNS0_19FileDescriptorProtoE @3256
    _ZN6google8protobuf24SimpleDescriptorDatabase9MaybeCopyEPKNS0_19FileDescriptorProtoEPS2_ @3257
    _ZN6google8protobuf24SimpleDescriptorDatabaseC1Ev @3258
    _ZN6google8protobuf24SimpleDescriptorDatabaseC2Ev @3259
    _ZN6google8protobuf24SimpleDescriptorDatabaseD0Ev @3260
    _ZN6google8protobuf24SimpleDescriptorDatabaseD1Ev @3261
    _ZN6google8protobuf24SimpleDescriptorDatabaseD2Ev @3262
    _ZN6google8protobuf24UnescapeCEscapeSequencesEPKcPc @3263
    _ZN6google8protobuf24UnescapeCEscapeSequencesEPKcPcPSt6vectorISsSaISsEE @3264
    _ZN6google8protobuf25EncodedDescriptorDatabase10MaybeParseESt4pairIPKviEPNS0_19FileDescriptorProtoE @3265
    _ZN6google8protobuf25EncodedDescriptorDatabase14FindFileByNameERKSsPNS0_19FileDescriptorProtoE @3266
    _ZN6google8protobuf25EncodedDescriptorDatabase23FindAllExtensionNumbersERKSsPSt6vectorIiSaIiEE @3267
    _ZN6google8protobuf25EncodedDescriptorDatabase24FindFileContainingSymbolERKSsPNS0_19FileDescriptorProtoE @3268
    _ZN6google8protobuf25EncodedDescriptorDatabase27FindFileContainingExtensionERKSsiPNS0_19FileDescriptorProtoE @3269
    _ZN6google8protobuf25EncodedDescriptorDatabase30FindNameOfFileContainingSymbolERKSsPSs @3270
    _ZN6google8protobuf25EncodedDescriptorDatabase3AddEPKvi @3271
    _ZN6google8protobuf25EncodedDescriptorDatabase7AddCopyEPKvi @3272
    _ZN6google8protobuf25EncodedDescriptorDatabaseC1Ev @3273
    _ZN6google8protobuf25EncodedDescriptorDatabaseC2Ev @3274
    _ZN6google8protobuf25EncodedDescriptorDatabaseD0Ev @3275
    _ZN6google8protobuf25EncodedDescriptorDatabaseD1Ev @3276
    _ZN6google8protobuf25EncodedDescriptorDatabaseD2Ev @3277
    _ZN6google8protobuf26FieldOptions_CType_IsValidEi @3278
    _ZN6google8protobuf26STLDeleteContainerPointersIN9__gnu_cxx17__normal_iteratorIPPNS0_20FileDescriptorTablesESt6vectorIS5_SaIS5_EEEEEEvT_SB_ @3279
    _ZN6google8protobuf26STLDeleteContainerPointersIN9__gnu_cxx17__normal_iteratorIPPSsSt6vectorIS4_SaIS4_EEEEEEvT_SA_ @3280
    _ZN6google8protobuf26kStringPrintfVectorMaxArgsE @3281 DATA
    _ZN6google8protobuf28UninterpretedOption_NamePart10SharedCtorEv @3282
    _ZN6google8protobuf28UninterpretedOption_NamePart10SharedDtorEv @3283
    _ZN6google8protobuf28UninterpretedOption_NamePart10descriptorEv @3284
    _ZN6google8protobuf28UninterpretedOption_NamePart16default_instanceEv @3285
    _ZN6google8protobuf28UninterpretedOption_NamePart17default_instance_E @3286 DATA
    _ZN6google8protobuf28UninterpretedOption_NamePart20kNamePartFieldNumberE @3287 DATA
    _ZN6google8protobuf28UninterpretedOption_NamePart21InitAsDefaultInstanceEv @3288
    _ZN6google8protobuf28UninterpretedOption_NamePart23kIsExtensionFieldNumberE @3289 DATA
    _ZN6google8protobuf28UninterpretedOption_NamePart27MergePartialFromCodedStreamEPNS0_2io16CodedInputStreamE @3290
    _ZN6google8protobuf28UninterpretedOption_NamePart4SwapEPS1_ @3291
    _ZN6google8protobuf28UninterpretedOption_NamePart5ClearEv @3292
    _ZN6google8protobuf28UninterpretedOption_NamePart8CopyFromERKNS0_7MessageE @3293
    _ZN6google8protobuf28UninterpretedOption_NamePart8CopyFromERKS1_ @3294
    _ZN6google8protobuf28UninterpretedOption_NamePart9MergeFromERKNS0_7MessageE @3295
    _ZN6google8protobuf28UninterpretedOption_NamePart9MergeFromERKS1_ @3296
    _ZN6google8protobuf28UninterpretedOption_NamePartC1ERKS1_ @3297
    _ZN6google8protobuf28UninterpretedOption_NamePartC1Ev @3298
    _ZN6google8protobuf28UninterpretedOption_NamePartC2ERKS1_ @3299
    _ZN6google8protobuf28UninterpretedOption_NamePartC2Ev @3300
    _ZN6google8protobuf28UninterpretedOption_NamePartD0Ev @3301
    _ZN6google8protobuf28UninterpretedOption_NamePartD1Ev @3302
    _ZN6google8protobuf28UninterpretedOption_NamePartD2Ev @3303
    _ZN6google8protobuf29FieldOptions_CType_descriptorEv @3304
    _ZN6google8protobuf2io14ErrorCollector10AddWarningEiiRKSs @3305
    _ZN6google8protobuf2io14ErrorCollectorD0Ev @3306
    _ZN6google8protobuf2io14ErrorCollectorD1Ev @3307
    _ZN6google8protobuf2io14ErrorCollectorD2Ev @3308
    _ZN6google8protobuf2io14NoLocaleStrtodEPKcPPc @3309
    _ZN6google8protobuf2io15FileInputStream22CopyingFileInputStream4ReadEPvi @3310
    _ZN6google8protobuf2io15FileInputStream22CopyingFileInputStream4SkipEi @3311
    _ZN6google8protobuf2io15FileInputStream22CopyingFileInputStream5CloseEv @3312
    _ZN6google8protobuf2io15FileInputStream22CopyingFileInputStreamC1Ei @3313
    _ZN6google8protobuf2io15FileInputStream22CopyingFileInputStreamC2Ei @3314
    _ZN6google8protobuf2io15FileInputStream22CopyingFileInputStreamD0Ev @3315
    _ZN6google8protobuf2io15FileInputStream22CopyingFileInputStreamD1Ev @3316
    _ZN6google8protobuf2io15FileInputStream22CopyingFileInputStreamD2Ev @3317
    _ZN6google8protobuf2io15FileInputStream4NextEPPKvPi @3318
    _ZN6google8protobuf2io15FileInputStream4SkipEi @3319
    _ZN6google8protobuf2io15FileInputStream5CloseEv @3320
    _ZN6google8protobuf2io15FileInputStream6BackUpEi @3321
    _ZN6google8protobuf2io15FileInputStreamC1Eii @3322
    _ZN6google8protobuf2io15FileInputStreamC2Eii @3323
    _ZN6google8protobuf2io15FileInputStreamD0Ev @3324
    _ZN6google8protobuf2io15FileInputStreamD1Ev @3325
    _ZN6google8protobuf2io15FileInputStreamD2Ev @3326
    _ZN6google8protobuf2io16ArrayInputStream4NextEPPKvPi @3327
    _ZN6google8protobuf2io16ArrayInputStream4SkipEi @3328
    _ZN6google8protobuf2io16ArrayInputStream6BackUpEi @3329
    _ZN6google8protobuf2io16ArrayInputStreamC1EPKvii @3330
    _ZN6google8protobuf2io16ArrayInputStreamC2EPKvii @3331
    _ZN6google8protobuf2io16ArrayInputStreamD0Ev @3332
    _ZN6google8protobuf2io16ArrayInputStreamD1Ev @3333
    _ZN6google8protobuf2io16ArrayInputStreamD2Ev @3334
    _ZN6google8protobuf2io16CodedInputStream10ReadStringEPSsi @3335
    _ZN6google8protobuf2io16CodedInputStream11ReadTagSlowEv @3336
    _ZN6google8protobuf2io16CodedInputStream12ReadVarint32EPj @3337
    _ZN6google8protobuf2io16CodedInputStream12ReadVarint64EPy @3338
    _ZN6google8protobuf2io16CodedInputStream15ReadTagFallbackEv @3339
    _ZN6google8protobuf2io16CodedInputStream16ReadVarint32SlowEPj @3340
    _ZN6google8protobuf2io16CodedInputStream16ReadVarint64SlowEPy @3341
    _ZN6google8protobuf2io16CodedInputStream18ReadStringFallbackEPSsi @3342
    _ZN6google8protobuf2io16CodedInputStream18SetTotalBytesLimitEii @3343
    _ZN6google8protobuf2io16CodedInputStream20ReadVarint32FallbackEPj @3344
    _ZN6google8protobuf2io16CodedInputStream20ReadVarint64FallbackEPy @3345
    _ZN6google8protobuf2io16CodedInputStream22GetDirectBufferPointerEPPKvPi @3346
    _ZN6google8protobuf2io16CodedInputStream24default_recursion_limit_E @3347 DATA
    _ZN6google8protobuf2io16CodedInputStream25PrintTotalBytesLimitErrorEv @3348
    _ZN6google8protobuf2io16CodedInputStream26ReadLittleEndian32FallbackEPj @3349
    _ZN6google8protobuf2io16CodedInputStream26ReadLittleEndian64FallbackEPy @3350
    _ZN6google8protobuf2io16CodedInputStream28BackUpInputToCurrentPositionEv @3351
    _ZN6google8protobuf2io16CodedInputStream4SkipEi @3352
    _ZN6google8protobuf2io16CodedInputStream7ReadRawEPvi @3353
    _ZN6google8protobuf2io16CodedInputStream7RefreshEv @3354
    _ZN6google8protobuf2io16CodedInputStream8PopLimitEi @3355
    _ZN6google8protobuf2io16CodedInputStream9PushLimitEi @3356
    _ZN6google8protobuf2io16CodedInputStreamD1Ev @3357
    _ZN6google8protobuf2io16CodedInputStreamD2Ev @3358
    _ZN6google8protobuf2io16FileOutputStream23CopyingFileOutputStream5CloseEv @3359
    _ZN6google8protobuf2io16FileOutputStream23CopyingFileOutputStream5WriteEPKvi @3360
    _ZN6google8protobuf2io16FileOutputStream23CopyingFileOutputStreamC1Ei @3361
    _ZN6google8protobuf2io16FileOutputStream23CopyingFileOutputStreamC2Ei @3362
    _ZN6google8protobuf2io16FileOutputStream23CopyingFileOutputStreamD0Ev @3363
    _ZN6google8protobuf2io16FileOutputStream23CopyingFileOutputStreamD1Ev @3364
    _ZN6google8protobuf2io16FileOutputStream23CopyingFileOutputStreamD2Ev @3365
    _ZN6google8protobuf2io16FileOutputStream4NextEPPvPi @3366
    _ZN6google8protobuf2io16FileOutputStream5CloseEv @3367
    _ZN6google8protobuf2io16FileOutputStream5FlushEv @3368
    _ZN6google8protobuf2io16FileOutputStream6BackUpEi @3369
    _ZN6google8protobuf2io16FileOutputStreamC1Eii @3370
    _ZN6google8protobuf2io16FileOutputStreamC2Eii @3371
    _ZN6google8protobuf2io16FileOutputStreamD0Ev @3372
    _ZN6google8protobuf2io16FileOutputStreamD1Ev @3373
    _ZN6google8protobuf2io16FileOutputStreamD2Ev @3374
    _ZN6google8protobuf2io17ArrayOutputStream4NextEPPvPi @3375
    _ZN6google8protobuf2io17ArrayOutputStream6BackUpEi @3376
    _ZN6google8protobuf2io17ArrayOutputStreamC1EPvii @3377
    _ZN6google8protobuf2io17ArrayOutputStreamC2EPvii @3378
    _ZN6google8protobuf2io17ArrayOutputStreamD0Ev @3379
    _ZN6google8protobuf2io17ArrayOutputStreamD1Ev @3380
    _ZN6google8protobuf2io17ArrayOutputStreamD2Ev @3381
    _ZN6google8protobuf2io17CodedOutputStream12VarintSize64Ey @3382
    _ZN6google8protobuf2io17CodedOutputStream13WriteVarint32Ej @3383
    _ZN6google8protobuf2io17CodedOutputStream13WriteVarint64Ey @3384
    _ZN6google8protobuf2io17CodedOutputStream14EnableAliasingEb @3385
    _ZN6google8protobuf2io17CodedOutputStream15WriteAliasedRawEPKvi @3386
    _ZN6google8protobuf2io17CodedOutputStream15WriteRawToArrayEPKviPh @3387
    _ZN6google8protobuf2io17CodedOutputStream19WriteLittleEndian32Ej @3388
    _ZN6google8protobuf2io17CodedOutputStream19WriteLittleEndian64Ey @3389
    _ZN6google8protobuf2io17CodedOutputStream20VarintSize32FallbackEj @3390
    _ZN6google8protobuf2io17CodedOutputStream20WriteVarint64ToArrayEyPh @3391
    _ZN6google8protobuf2io17CodedOutputStream22GetDirectBufferPointerEPPvPi @3392
    _ZN6google8protobuf2io17CodedOutputStream26WriteLittleEndian32ToArrayEjPh @3393
    _ZN6google8protobuf2io17CodedOutputStream26WriteStringWithSizeToArrayERKSsPh @3394
    _ZN6google8protobuf2io17CodedOutputStream28WriteVarint32FallbackToArrayEjPh @3395
    _ZN6google8protobuf2io17CodedOutputStream32WriteVarint32SignExtendedToArrayEiPh @3396
    _ZN6google8protobuf2io17CodedOutputStream4SkipEi @3397
    _ZN6google8protobuf2io17CodedOutputStream7RefreshEv @3398
    _ZN6google8protobuf2io17CodedOutputStream8WriteRawEPKvi @3399
    _ZN6google8protobuf2io17CodedOutputStreamC1EPNS1_20ZeroCopyOutputStreamE @3400
    _ZN6google8protobuf2io17CodedOutputStreamC2EPNS1_20ZeroCopyOutputStreamE @3401
    _ZN6google8protobuf2io17CodedOutputStreamD1Ev @3402
    _ZN6google8protobuf2io17CodedOutputStreamD2Ev @3403
    _ZN6google8protobuf2io18CopyingInputStream4SkipEi @3404
    _ZN6google8protobuf2io18CopyingInputStreamD0Ev @3405
    _ZN6google8protobuf2io18CopyingInputStreamD1Ev @3406
    _ZN6google8protobuf2io18CopyingInputStreamD2Ev @3407
    _ZN6google8protobuf2io18IstreamInputStream25CopyingIstreamInputStream4ReadEPvi @3408
    _ZN6google8protobuf2io18IstreamInputStream25CopyingIstreamInputStreamC1EPSi @3409
    _ZN6google8protobuf2io18IstreamInputStream25CopyingIstreamInputStreamC2EPSi @3410
    _ZN6google8protobuf2io18IstreamInputStream25CopyingIstreamInputStreamD0Ev @3411
    _ZN6google8protobuf2io18IstreamInputStream25CopyingIstreamInputStreamD1Ev @3412
    _ZN6google8protobuf2io18IstreamInputStream25CopyingIstreamInputStreamD2Ev @3413
    _ZN6google8protobuf2io18IstreamInputStream4NextEPPKvPi @3414
    _ZN6google8protobuf2io18IstreamInputStream4SkipEi @3415
    _ZN6google8protobuf2io18IstreamInputStream6BackUpEi @3416
    _ZN6google8protobuf2io18IstreamInputStreamC1EPSii @3417
    _ZN6google8protobuf2io18IstreamInputStreamC2EPSii @3418
    _ZN6google8protobuf2io18IstreamInputStreamD0Ev @3419
    _ZN6google8protobuf2io18IstreamInputStreamD1Ev @3420
    _ZN6google8protobuf2io18IstreamInputStreamD2Ev @3421
    _ZN6google8protobuf2io18StringOutputStream4NextEPPvPi @3422
    _ZN6google8protobuf2io18StringOutputStream6BackUpEi @3423
    _ZN6google8protobuf2io18StringOutputStreamC1EPSs @3424
    _ZN6google8protobuf2io18StringOutputStreamC2EPSs @3425
    _ZN6google8protobuf2io18StringOutputStreamD0Ev @3426
    _ZN6google8protobuf2io18StringOutputStreamD1Ev @3427
    _ZN6google8protobuf2io18StringOutputStreamD2Ev @3428
    _ZN6google8protobuf2io19CopyingOutputStreamD0Ev @3429
    _ZN6google8protobuf2io19CopyingOutputStreamD1Ev @3430
    _ZN6google8protobuf2io19CopyingOutputStreamD2Ev @3431
    _ZN6google8protobuf2io19LimitingInputStream4NextEPPKvPi @3432
    _ZN6google8protobuf2io19LimitingInputStream4SkipEi @3433
    _ZN6google8protobuf2io19LimitingInputStream6BackUpEi @3434
    _ZN6google8protobuf2io19LimitingInputStreamC1EPNS1_19ZeroCopyInputStreamEx @3435
    _ZN6google8protobuf2io19LimitingInputStreamC2EPNS1_19ZeroCopyInputStreamEx @3436
    _ZN6google8protobuf2io19LimitingInputStreamD0Ev @3437
    _ZN6google8protobuf2io19LimitingInputStreamD1Ev @3438
    _ZN6google8protobuf2io19LimitingInputStreamD2Ev @3439
    _ZN6google8protobuf2io19OstreamOutputStream26CopyingOstreamOutputStream5WriteEPKvi @3440
    _ZN6google8protobuf2io19OstreamOutputStream26CopyingOstreamOutputStreamC1EPSo @3441
    _ZN6google8protobuf2io19OstreamOutputStream26CopyingOstreamOutputStreamC2EPSo @3442
    _ZN6google8protobuf2io19OstreamOutputStream26CopyingOstreamOutputStreamD0Ev @3443
    _ZN6google8protobuf2io19OstreamOutputStream26CopyingOstreamOutputStreamD1Ev @3444
    _ZN6google8protobuf2io19OstreamOutputStream26CopyingOstreamOutputStreamD2Ev @3445
    _ZN6google8protobuf2io19OstreamOutputStream4NextEPPvPi @3446
    _ZN6google8protobuf2io19OstreamOutputStream6BackUpEi @3447
    _ZN6google8protobuf2io19OstreamOutputStreamC1EPSoi @3448
    _ZN6google8protobuf2io19OstreamOutputStreamC2EPSoi @3449
    _ZN6google8protobuf2io19OstreamOutputStreamD0Ev @3450
    _ZN6google8protobuf2io19OstreamOutputStreamD1Ev @3451
    _ZN6google8protobuf2io19OstreamOutputStreamD2Ev @3452
    _ZN6google8protobuf2io19ZeroCopyInputStreamD0Ev @3453
    _ZN6google8protobuf2io19ZeroCopyInputStreamD1Ev @3454
    _ZN6google8protobuf2io19ZeroCopyInputStreamD2Ev @3455
    _ZN6google8protobuf2io20ZeroCopyOutputStream15WriteAliasedRawEPKvi @3456
    _ZN6google8protobuf2io20ZeroCopyOutputStreamD0Ev @3457
    _ZN6google8protobuf2io20ZeroCopyOutputStreamD1Ev @3458
    _ZN6google8protobuf2io20ZeroCopyOutputStreamD2Ev @3459
    _ZN6google8protobuf2io24ConcatenatingInputStream4NextEPPKvPi @3460
    _ZN6google8protobuf2io24ConcatenatingInputStream4SkipEi @3461
    _ZN6google8protobuf2io24ConcatenatingInputStream6BackUpEi @3462
    _ZN6google8protobuf2io24ConcatenatingInputStreamC1EPKPNS1_19ZeroCopyInputStreamEi @3463
    _ZN6google8protobuf2io24ConcatenatingInputStreamC2EPKPNS1_19ZeroCopyInputStreamEi @3464
    _ZN6google8protobuf2io24ConcatenatingInputStreamD0Ev @3465
    _ZN6google8protobuf2io24ConcatenatingInputStreamD1Ev @3466
    _ZN6google8protobuf2io24ConcatenatingInputStreamD2Ev @3467
    _ZN6google8protobuf2io25CopyingInputStreamAdaptor10FreeBufferEv @3468
    _ZN6google8protobuf2io25CopyingInputStreamAdaptor22AllocateBufferIfNeededEv @3469
    _ZN6google8protobuf2io25CopyingInputStreamAdaptor4NextEPPKvPi @3470
    _ZN6google8protobuf2io25CopyingInputStreamAdaptor4SkipEi @3471
    _ZN6google8protobuf2io25CopyingInputStreamAdaptor6BackUpEi @3472
    _ZN6google8protobuf2io25CopyingInputStreamAdaptorC1EPNS1_18CopyingInputStreamEi @3473
    _ZN6google8protobuf2io25CopyingInputStreamAdaptorC2EPNS1_18CopyingInputStreamEi @3474
    _ZN6google8protobuf2io25CopyingInputStreamAdaptorD0Ev @3475
    _ZN6google8protobuf2io25CopyingInputStreamAdaptorD1Ev @3476
    _ZN6google8protobuf2io25CopyingInputStreamAdaptorD2Ev @3477
    _ZN6google8protobuf2io26CopyingOutputStreamAdaptor10FreeBufferEv @3478
    _ZN6google8protobuf2io26CopyingOutputStreamAdaptor11WriteBufferEv @3479
    _ZN6google8protobuf2io26CopyingOutputStreamAdaptor22AllocateBufferIfNeededEv @3480
    _ZN6google8protobuf2io26CopyingOutputStreamAdaptor4NextEPPvPi @3481
    _ZN6google8protobuf2io26CopyingOutputStreamAdaptor5FlushEv @3482
    _ZN6google8protobuf2io26CopyingOutputStreamAdaptor6BackUpEi @3483
    _ZN6google8protobuf2io26CopyingOutputStreamAdaptorC1EPNS1_19CopyingOutputStreamEi @3484
    _ZN6google8protobuf2io26CopyingOutputStreamAdaptorC2EPNS1_19CopyingOutputStreamEi @3485
    _ZN6google8protobuf2io26CopyingOutputStreamAdaptorD0Ev @3486
    _ZN6google8protobuf2io26CopyingOutputStreamAdaptorD1Ev @3487
    _ZN6google8protobuf2io26CopyingOutputStreamAdaptorD2Ev @3488
    _ZN6google8protobuf2io9Tokenizer10ParseFloatERKSs @3489
    _ZN6google8protobuf2io9Tokenizer12IsIdentifierERKSs @3490
    _ZN6google8protobuf2io9Tokenizer12ParseIntegerERKSsyPy @3491
    _ZN6google8protobuf2io9Tokenizer13ConsumeNumberEbb @3492
    _ZN6google8protobuf2io9Tokenizer13ConsumeStringEc @3493
    _ZN6google8protobuf2io9Tokenizer16NextWithCommentsEPSsPSt6vectorISsSaISsEES3_ @3494
    _ZN6google8protobuf2io9Tokenizer17ParseStringAppendERKSsPSs @3495
    _ZN6google8protobuf2io9Tokenizer18ConsumeLineCommentEPSs @3496
    _ZN6google8protobuf2io9Tokenizer19ConsumeBlockCommentEPSs @3497
    _ZN6google8protobuf2io9Tokenizer22TryConsumeCommentStartEv @3498
    _ZN6google8protobuf2io9Tokenizer4NextEv @3499
    _ZN6google8protobuf2io9Tokenizer7RefreshEv @3500
    _ZN6google8protobuf2io9Tokenizer8NextCharEv @3501
    _ZN6google8protobuf2io9TokenizerC1EPNS1_19ZeroCopyInputStreamEPNS1_14ErrorCollectorE @3502
    _ZN6google8protobuf2io9TokenizerC2EPNS1_19ZeroCopyInputStreamEPNS1_14ErrorCollectorE @3503
    _ZN6google8protobuf2io9TokenizerD1Ev @3504
    _ZN6google8protobuf2io9TokenizerD2Ev @3505
    _ZN6google8protobuf30DescriptorProto_ExtensionRange10SharedCtorEv @3506
    _ZN6google8protobuf30DescriptorProto_ExtensionRange10SharedDtorEv @3507
    _ZN6google8protobuf30DescriptorProto_ExtensionRange10descriptorEv @3508
    _ZN6google8protobuf30DescriptorProto_ExtensionRange15kEndFieldNumberE @3509 DATA
    _ZN6google8protobuf30DescriptorProto_ExtensionRange16default_instanceEv @3510
    _ZN6google8protobuf30DescriptorProto_ExtensionRange17default_instance_E @3511 DATA
    _ZN6google8protobuf30DescriptorProto_ExtensionRange17kStartFieldNumberE @3512 DATA
    _ZN6google8protobuf30DescriptorProto_ExtensionRange21InitAsDefaultInstanceEv @3513
    _ZN6google8protobuf30DescriptorProto_ExtensionRange27MergePartialFromCodedStreamEPNS0_2io16CodedInputStreamE @3514
    _ZN6google8protobuf30DescriptorProto_ExtensionRange4SwapEPS1_ @3515
    _ZN6google8protobuf30DescriptorProto_ExtensionRange5ClearEv @3516
    _ZN6google8protobuf30DescriptorProto_ExtensionRange8CopyFromERKNS0_7MessageE @3517
    _ZN6google8protobuf30DescriptorProto_ExtensionRange8CopyFromERKS1_ @3518
    _ZN6google8protobuf30DescriptorProto_ExtensionRange9MergeFromERKNS0_7MessageE @3519
    _ZN6google8protobuf30DescriptorProto_ExtensionRange9MergeFromERKS1_ @3520
    _ZN6google8protobuf30DescriptorProto_ExtensionRangeC1ERKS1_ @3521
    _ZN6google8protobuf30DescriptorProto_ExtensionRangeC1Ev @3522
    _ZN6google8protobuf30DescriptorProto_ExtensionRangeC2ERKS1_ @3523
    _ZN6google8protobuf30DescriptorProto_ExtensionRangeC2Ev @3524
    _ZN6google8protobuf30DescriptorProto_ExtensionRangeD0Ev @3525
    _ZN6google8protobuf30DescriptorProto_ExtensionRangeD1Ev @3526
    _ZN6google8protobuf30DescriptorProto_ExtensionRangeD2Ev @3527
    _ZN6google8protobuf32FileOptions_OptimizeMode_IsValidEi @3528
    _ZN6google8protobuf33FieldDescriptorProto_Type_IsValidEi @3529
    _ZN6google8protobuf34FieldDescriptorProto_Label_IsValidEi @3530
    _ZN6google8protobuf35FileOptions_OptimizeMode_descriptorEv @3531
    _ZN6google8protobuf36FieldDescriptorProto_Type_descriptorEv @3532
    _ZN6google8protobuf37FieldDescriptorProto_Label_descriptorEv @3533
    _ZN6google8protobuf4JoinIN9__gnu_cxx17__normal_iteratorIPKSsSt6vectorISsSaISsEEEEEEvT_SA_PKcPSs @3534
    _ZN6google8protobuf55protobuf_AddDesc_google_2fprotobuf_2fdescriptor_2eprotoEv @3535
    _ZN6google8protobuf58protobuf_AssignDesc_google_2fprotobuf_2fdescriptor_2eprotoEv @3536
    _ZN6google8protobuf5ToHexEy @3537
    _ZN6google8protobuf60protobuf_ShutdownFile_google_2fprotobuf_2fdescriptor_2eprotoEv @3538
    _ZN6google8protobuf69static_descriptor_initializer_google_2fprotobuf_2fdescriptor_2eproto_E @3539 DATA
    _ZN6google8protobuf6StrCatIA2_cSsS2_EESsRKT_RKT0_RKT1_ @3540
    _ZN6google8protobuf6ghtonlEj @3541
    _ZN6google8protobuf7CEscapeERKSs @3542
    _ZN6google8protobuf7ClosureD0Ev @3543
    _ZN6google8protobuf7ClosureD1Ev @3544
    _ZN6google8protobuf7ClosureD2Ev @3545
    _ZN6google8protobuf7Message16ParseFromIstreamEPSi @3546
    _ZN6google8protobuf7Message20DiscardUnknownFieldsEv @3547
    _ZN6google8protobuf7Message21CheckTypeAndMergeFromERKNS0_11MessageLiteE @3548
    _ZN6google8protobuf7Message23ParseFromFileDescriptorEi @3549
    _ZN6google8protobuf7Message23ParsePartialFromIstreamEPSi @3550
    _ZN6google8protobuf7Message27MergePartialFromCodedStreamEPNS0_2io16CodedInputStreamE @3551
    _ZN6google8protobuf7Message30ParsePartialFromFileDescriptorEi @3552
    _ZN6google8protobuf7Message5ClearEv @3553
    _ZN6google8protobuf7Message8CopyFromERKS1_ @3554
    _ZN6google8protobuf7Message9MergeFromERKS1_ @3555
    _ZN6google8protobuf7MessageD0Ev @3556
    _ZN6google8protobuf7MessageD1Ev @3557
    _ZN6google8protobuf7MessageD2Ev @3558
    _ZN6google8protobuf7strings10CHexEscapeERKSs @3559
    _ZN6google8protobuf7strings10SubstituteEPKcRKNS1_8internal13SubstituteArgES7_S7_S7_S7_S7_S7_S7_S7_S7_ @3560
    _ZN6google8protobuf7strings15Utf8SafeCEscapeERKSs @3561
    _ZN6google8protobuf7strings19SubstituteAndAppendEPSsPKcRKNS1_8internal13SubstituteArgES8_S8_S8_S8_S8_S8_S8_S8_S8_ @3562
    _ZN6google8protobuf8internal10LogMessage6FinishEv @3563
    _ZN6google8protobuf8internal10LogMessageC1ENS0_8LogLevelEPKci @3564
    _ZN6google8protobuf8internal10LogMessageC2ENS0_8LogLevelEPKci @3565
    _ZN6google8protobuf8internal10LogMessageD1Ev @3566
    _ZN6google8protobuf8internal10LogMessageD2Ev @3567
    _ZN6google8protobuf8internal10LogMessagelsEPKc @3568
    _ZN6google8protobuf8internal10LogMessagelsERKSs @3569
    _ZN6google8protobuf8internal10LogMessagelsEc @3570
    _ZN6google8protobuf8internal10LogMessagelsEd @3571
    _ZN6google8protobuf8internal10LogMessagelsEi @3572
    _ZN6google8protobuf8internal10LogMessagelsEj @3573
    _ZN6google8protobuf8internal10LogMessagelsEl @3574
    _ZN6google8protobuf8internal10LogMessagelsEm @3575
    _ZN6google8protobuf8internal10NameOfEnumEPKNS0_14EnumDescriptorEi @3576
    _ZN6google8protobuf8internal10OnShutdownEPFvvE @3577
    _ZN6google8protobuf8internal10WireFormat11SkipMessageEPNS0_2io16CodedInputStreamEPNS0_15UnknownFieldSetE @3578
    _ZN6google8protobuf8internal10WireFormat13FieldByteSizeEPKNS0_15FieldDescriptorERKNS0_7MessageE @3579
    _ZN6google8protobuf8internal10WireFormat18ParseAndMergeFieldEjPKNS0_15FieldDescriptorEPNS0_7MessageEPNS0_2io16CodedInputStreamE @3580
    _ZN6google8protobuf8internal10WireFormat19SkipMessageSetFieldEPNS0_2io16CodedInputStreamEjPNS0_15UnknownFieldSetE @3581
    _ZN6google8protobuf8internal10WireFormat20ParseAndMergePartialEPNS0_2io16CodedInputStreamEPNS0_7MessageE @3582
    _ZN6google8protobuf8internal10WireFormat21FieldDataOnlyByteSizeEPKNS0_15FieldDescriptorERKNS0_7MessageE @3583
    _ZN6google8protobuf8internal10WireFormat22MessageSetItemByteSizeEPKNS0_15FieldDescriptorERKNS0_7MessageE @3584
    _ZN6google8protobuf8internal10WireFormat22SerializeUnknownFieldsERKNS0_15UnknownFieldSetEPNS0_2io17CodedOutputStreamE @3585
    _ZN6google8protobuf8internal10WireFormat24ComputeUnknownFieldsSizeERKNS0_15UnknownFieldSetE @3586
    _ZN6google8protobuf8internal10WireFormat24SerializeWithCachedSizesERKNS0_7MessageEiPNS0_2io17CodedOutputStreamE @3587
    _ZN6google8protobuf8internal10WireFormat24VerifyUTF8StringFallbackEPKciNS2_9OperationES4_ @3588
    _ZN6google8protobuf8internal10WireFormat27ParseAndMergeMessageSetItemEPNS0_2io16CodedInputStreamEPNS0_7MessageE @3589
    _ZN6google8protobuf8internal10WireFormat28ParseAndMergeMessageSetFieldEjPKNS0_15FieldDescriptorEPNS0_7MessageEPNS0_2io16CodedInputStreamE @3590
    _ZN6google8protobuf8internal10WireFormat29SerializeFieldWithCachedSizesEPKNS0_15FieldDescriptorERKNS0_7MessageEPNS0_2io17CodedOutputStreamE @3591
    _ZN6google8protobuf8internal10WireFormat29SerializeUnknownFieldsToArrayERKNS0_15UnknownFieldSetEPh @3592
    _ZN6google8protobuf8internal10WireFormat31SerializeUnknownMessageSetItemsERKNS0_15UnknownFieldSetEPNS0_2io17CodedOutputStreamE @3593
    _ZN6google8protobuf8internal10WireFormat33ComputeUnknownMessageSetItemsSizeERKNS0_15UnknownFieldSetE @3594
    _ZN6google8protobuf8internal10WireFormat38SerializeMessageSetItemWithCachedSizesEPKNS0_15FieldDescriptorERKNS0_7MessageEPNS0_2io17CodedOutputStreamE @3595
    _ZN6google8protobuf8internal10WireFormat38SerializeUnknownMessageSetItemsToArrayERKNS0_15UnknownFieldSetEPh @3596
    _ZN6google8protobuf8internal10WireFormat8ByteSizeERKNS0_7MessageE @3597
    _ZN6google8protobuf8internal10WireFormat9SkipFieldEPNS0_2io16CodedInputStreamEjPNS0_15UnknownFieldSetE @3598
    _ZN6google8protobuf8internal10scoped_ptrINS0_15UnknownFieldSetEED1Ev @3599
    _ZN6google8protobuf8internal10scoped_ptrINS0_21DynamicMessageFactory12PrototypeMapEED1Ev @3600
    _ZN6google8protobuf8internal11LogFinisheraSERNS1_10LogMessageE @3601
    _ZN6google8protobuf8internal12ExtensionSet10AddMessageEPKNS0_15FieldDescriptorEPNS0_14MessageFactoryE @3602
    _ZN6google8protobuf8internal12ExtensionSet10AddMessageEihRKNS0_11MessageLiteEPKNS0_15FieldDescriptorE @3603
    _ZN6google8protobuf8internal12ExtensionSet10ParseFieldEjPNS0_2io16CodedInputStreamEPKNS0_11MessageLiteE @3604
    _ZN6google8protobuf8internal12ExtensionSet10ParseFieldEjPNS0_2io16CodedInputStreamEPKNS0_11MessageLiteEPNS3_17CodedOutputStreamE @3605
    _ZN6google8protobuf8internal12ExtensionSet10ParseFieldEjPNS0_2io16CodedInputStreamEPKNS0_7MessageEPNS0_15UnknownFieldSetE @3606
    _ZN6google8protobuf8internal12ExtensionSet10ParseFieldEjPNS0_2io16CodedInputStreamEPNS1_15ExtensionFinderEPNS1_12FieldSkipperE @3607
    _ZN6google8protobuf8internal12ExtensionSet10RemoveLastEi @3608
    _ZN6google8protobuf8internal12ExtensionSet11ReleaseLastEi @3609
    _ZN6google8protobuf8internal12ExtensionSet12SwapElementsEiii @3610
    _ZN6google8protobuf8internal12ExtensionSet13MutableStringEihPKNS0_15FieldDescriptorE @3611
    _ZN6google8protobuf8internal12ExtensionSet13SwapExtensionEPS2_i @3612
    _ZN6google8protobuf8internal12ExtensionSet14ClearExtensionEi @3613
    _ZN6google8protobuf8internal12ExtensionSet14MutableMessageEPKNS0_15FieldDescriptorEPNS0_14MessageFactoryE @3614
    _ZN6google8protobuf8internal12ExtensionSet14MutableMessageEihRKNS0_11MessageLiteEPKNS0_15FieldDescriptorE @3615
    _ZN6google8protobuf8internal12ExtensionSet14ReleaseMessageEPKNS0_15FieldDescriptorEPNS0_14MessageFactoryE @3616
    _ZN6google8protobuf8internal12ExtensionSet14ReleaseMessageEiRKNS0_11MessageLiteE @3617
    _ZN6google8protobuf8internal12ExtensionSet15ParseMessageSetEPNS0_2io16CodedInputStreamEPKNS0_11MessageLiteE @3618
    _ZN6google8protobuf8internal12ExtensionSet15ParseMessageSetEPNS0_2io16CodedInputStreamEPKNS0_7MessageEPNS0_15UnknownFieldSetE @3619
    _ZN6google8protobuf8internal12ExtensionSet15ParseMessageSetEPNS0_2io16CodedInputStreamEPNS1_15ExtensionFinderEPNS1_22MessageSetFieldSkipperE @3620
    _ZN6google8protobuf8internal12ExtensionSet15SetRepeatedBoolEiib @3621
    _ZN6google8protobuf8internal12ExtensionSet15SetRepeatedEnumEiii @3622
    _ZN6google8protobuf8internal12ExtensionSet16SetRepeatedFloatEiif @3623
    _ZN6google8protobuf8internal12ExtensionSet16SetRepeatedInt32Eiii @3624
    _ZN6google8protobuf8internal12ExtensionSet16SetRepeatedInt64Eiix @3625
    _ZN6google8protobuf8internal12ExtensionSet17MaybeNewExtensionEiPKNS0_15FieldDescriptorEPPNS2_9ExtensionE @3626
    _ZN6google8protobuf8internal12ExtensionSet17RegisterExtensionEPKNS0_11MessageLiteEihbb @3627
    _ZN6google8protobuf8internal12ExtensionSet17SetRepeatedDoubleEiid @3628
    _ZN6google8protobuf8internal12ExtensionSet17SetRepeatedUInt32Eiij @3629
    _ZN6google8protobuf8internal12ExtensionSet17SetRepeatedUInt64Eiiy @3630
    _ZN6google8protobuf8internal12ExtensionSet19ParseMessageSetItemEPNS0_2io16CodedInputStreamEPNS1_15ExtensionFinderEPNS1_22MessageSetFieldSkipperE @3631
    _ZN6google8protobuf8internal12ExtensionSet19SetAllocatedMessageEihPKNS0_15FieldDescriptorEPNS0_11MessageLiteE @3632
    _ZN6google8protobuf8internal12ExtensionSet21MutableRepeatedStringEii @3633
    _ZN6google8protobuf8internal12ExtensionSet21ParseFieldMaybeLazilyEiiPNS0_2io16CodedInputStreamEPNS1_15ExtensionFinderEPNS1_22MessageSetFieldSkipperE @3634
    _ZN6google8protobuf8internal12ExtensionSet21RegisterEnumExtensionEPKNS0_11MessageLiteEihbbPFbiE @3635
    _ZN6google8protobuf8internal12ExtensionSet22MutableRepeatedMessageEii @3636
    _ZN6google8protobuf8internal12ExtensionSet23MutableRawRepeatedFieldEi @3637
    _ZN6google8protobuf8internal12ExtensionSet23MutableRawRepeatedFieldEihbPKNS0_15FieldDescriptorE @3638
    _ZN6google8protobuf8internal12ExtensionSet24FindExtensionInfoFromTagEjPNS1_15ExtensionFinderEPiPNS1_13ExtensionInfoEPb @3639
    _ZN6google8protobuf8internal12ExtensionSet24RegisterMessageExtensionEPKNS0_11MessageLiteEihbbS5_ @3640
    _ZN6google8protobuf8internal12ExtensionSet27ParseFieldWithExtensionInfoEibRKNS1_13ExtensionInfoEPNS0_2io16CodedInputStreamEPNS1_12FieldSkipperE @3641
    _ZN6google8protobuf8internal12ExtensionSet32FindExtensionInfoFromFieldNumberEiiPNS1_15ExtensionFinderEPNS1_13ExtensionInfoEPb @3642
    _ZN6google8protobuf8internal12ExtensionSet4SwapEPS2_ @3643
    _ZN6google8protobuf8internal12ExtensionSet5ClearEv @3644
    _ZN6google8protobuf8internal12ExtensionSet7AddBoolEihbbPKNS0_15FieldDescriptorE @3645
    _ZN6google8protobuf8internal12ExtensionSet7AddEnumEihbiPKNS0_15FieldDescriptorE @3646
    _ZN6google8protobuf8internal12ExtensionSet7SetBoolEihbPKNS0_15FieldDescriptorE @3647
    _ZN6google8protobuf8internal12ExtensionSet7SetEnumEihiPKNS0_15FieldDescriptorE @3648
    _ZN6google8protobuf8internal12ExtensionSet8AddFloatEihbfPKNS0_15FieldDescriptorE @3649
    _ZN6google8protobuf8internal12ExtensionSet8AddInt32EihbiPKNS0_15FieldDescriptorE @3650
    _ZN6google8protobuf8internal12ExtensionSet8AddInt64EihbxPKNS0_15FieldDescriptorE @3651
    _ZN6google8protobuf8internal12ExtensionSet8SetFloatEihfPKNS0_15FieldDescriptorE @3652
    _ZN6google8protobuf8internal12ExtensionSet8SetInt32EihiPKNS0_15FieldDescriptorE @3653
    _ZN6google8protobuf8internal12ExtensionSet8SetInt64EihxPKNS0_15FieldDescriptorE @3654
    _ZN6google8protobuf8internal12ExtensionSet9AddDoubleEihbdPKNS0_15FieldDescriptorE @3655
    _ZN6google8protobuf8internal12ExtensionSet9AddStringEihPKNS0_15FieldDescriptorE @3656
    _ZN6google8protobuf8internal12ExtensionSet9AddUInt32EihbjPKNS0_15FieldDescriptorE @3657
    _ZN6google8protobuf8internal12ExtensionSet9AddUInt64EihbyPKNS0_15FieldDescriptorE @3658
    _ZN6google8protobuf8internal12ExtensionSet9Extension4FreeEv @3659
    _ZN6google8protobuf8internal12ExtensionSet9Extension5ClearEv @3660
    _ZN6google8protobuf8internal12ExtensionSet9MergeFromERKS2_ @3661
    _ZN6google8protobuf8internal12ExtensionSet9SetDoubleEihdPKNS0_15FieldDescriptorE @3662
    _ZN6google8protobuf8internal12ExtensionSet9SetUInt32EihjPKNS0_15FieldDescriptorE @3663
    _ZN6google8protobuf8internal12ExtensionSet9SetUInt64EihyPKNS0_15FieldDescriptorE @3664
    _ZN6google8protobuf8internal12ExtensionSetC1Ev @3665
    _ZN6google8protobuf8internal12ExtensionSetC2Ev @3666
    _ZN6google8protobuf8internal12ExtensionSetD1Ev @3667
    _ZN6google8protobuf8internal12ExtensionSetD2Ev @3668
    _ZN6google8protobuf8internal12FieldSkipper11SkipMessageEPNS0_2io16CodedInputStreamE @3669
    _ZN6google8protobuf8internal12FieldSkipper15SkipUnknownEnumEii @3670
    _ZN6google8protobuf8internal12FieldSkipper9SkipFieldEPNS0_2io16CodedInputStreamEj @3671
    _ZN6google8protobuf8internal12FieldSkipperD0Ev @3672
    _ZN6google8protobuf8internal12FieldSkipperD1Ev @3673
    _ZN6google8protobuf8internal13ReflectionOps13IsInitializedERKNS0_7MessageE @3674
    _ZN6google8protobuf8internal13ReflectionOps20DiscardUnknownFieldsEPNS0_7MessageE @3675
    _ZN6google8protobuf8internal13ReflectionOps24FindInitializationErrorsERKNS0_7MessageERKSsPSt6vectorISsSaISsEE @3676
    _ZN6google8protobuf8internal13ReflectionOps4CopyERKNS0_7MessageEPS3_ @3677
    _ZN6google8protobuf8internal13ReflectionOps5ClearEPNS0_7MessageE @3678
    _ZN6google8protobuf8internal13ReflectionOps5MergeERKNS0_7MessageEPS3_ @3679
    _ZN6google8protobuf8internal13VerifyVersionEiiPKc @3680
    _ZN6google8protobuf8internal13VersionStringEi @3681
    _ZN6google8protobuf8internal13empty_string_E @3682 DATA
    _ZN6google8protobuf8internal14NullLogHandlerENS0_8LogLevelEPKciRKSs @3683
    _ZN6google8protobuf8internal14ParseNamedEnumEPKNS0_14EnumDescriptorERKSsPi @3684
    _ZN6google8protobuf8internal14WireFormatLite10ReadStringEPNS0_2io16CodedInputStreamEPSs @3685
    _ZN6google8protobuf8internal14WireFormatLite10StringSizeERKSs @3686
    _ZN6google8protobuf8internal14WireFormatLite10WriteBytesEiRKSsPNS0_2io17CodedOutputStreamE @3687
    _ZN6google8protobuf8internal14WireFormatLite10WriteFloatEifPNS0_2io17CodedOutputStreamE @3688
    _ZN6google8protobuf8internal14WireFormatLite10WriteGroupEiRKNS0_11MessageLiteEPNS0_2io17CodedOutputStreamE @3689
    _ZN6google8protobuf8internal14WireFormatLite10WriteInt32EiiPNS0_2io17CodedOutputStreamE @3690
    _ZN6google8protobuf8internal14WireFormatLite10WriteInt64EixPNS0_2io17CodedOutputStreamE @3691
    _ZN6google8protobuf8internal14WireFormatLite11SkipMessageEPNS0_2io16CodedInputStreamE @3692
    _ZN6google8protobuf8internal14WireFormatLite11SkipMessageEPNS0_2io16CodedInputStreamEPNS3_17CodedOutputStreamE @3693
    _ZN6google8protobuf8internal14WireFormatLite11WriteDoubleEidPNS0_2io17CodedOutputStreamE @3694
    _ZN6google8protobuf8internal14WireFormatLite11WriteSInt32EiiPNS0_2io17CodedOutputStreamE @3695
    _ZN6google8protobuf8internal14WireFormatLite11WriteSInt64EixPNS0_2io17CodedOutputStreamE @3696
    _ZN6google8protobuf8internal14WireFormatLite11WriteStringEiRKSsPNS0_2io17CodedOutputStreamE @3697
    _ZN6google8protobuf8internal14WireFormatLite11WriteUInt32EijPNS0_2io17CodedOutputStreamE @3698
    _ZN6google8protobuf8internal14WireFormatLite11WriteUInt64EiyPNS0_2io17CodedOutputStreamE @3699
    _ZN6google8protobuf8internal14WireFormatLite12WriteFixed32EijPNS0_2io17CodedOutputStreamE @3700
    _ZN6google8protobuf8internal14WireFormatLite12WriteFixed64EiyPNS0_2io17CodedOutputStreamE @3701
    _ZN6google8protobuf8internal14WireFormatLite12WriteMessageEiRKNS0_11MessageLiteEPNS0_2io17CodedOutputStreamE @3702
    _ZN6google8protobuf8internal14WireFormatLite13WriteSFixed32EiiPNS0_2io17CodedOutputStreamE @3703
    _ZN6google8protobuf8internal14WireFormatLite13WriteSFixed64EixPNS0_2io17CodedOutputStreamE @3704
    _ZN6google8protobuf8internal14WireFormatLite20kMessageSetTypeIdTagE @3705 DATA
    _ZN6google8protobuf8internal14WireFormatLite21kMessageSetItemEndTagE @3706 DATA
    _ZN6google8protobuf8internal14WireFormatLite21kMessageSetMessageTagE @3707 DATA
    _ZN6google8protobuf8internal14WireFormatLite21kWireTypeForFieldTypeE @3708 DATA
    _ZN6google8protobuf8internal14WireFormatLite22ReadPackedEnumNoInlineEPNS0_2io16CodedInputStreamEPFbiEPNS0_13RepeatedFieldIiEE @3709
    _ZN6google8protobuf8internal14WireFormatLite22WriteBytesMaybeAliasedEiRKSsPNS0_2io17CodedOutputStreamE @3710
    _ZN6google8protobuf8internal14WireFormatLite22WriteGroupMaybeToArrayEiRKNS0_11MessageLiteEPNS0_2io17CodedOutputStreamE @3711
    _ZN6google8protobuf8internal14WireFormatLite22kFieldTypeToCppTypeMapE @3712 DATA
    _ZN6google8protobuf8internal14WireFormatLite23WriteStringMaybeAliasedEiRKSsPNS0_2io17CodedOutputStreamE @3713
    _ZN6google8protobuf8internal14WireFormatLite23kMessageSetItemStartTagE @3714 DATA
    _ZN6google8protobuf8internal14WireFormatLite23kMessageSetItemTagsSizeE @3715 DATA
    _ZN6google8protobuf8internal14WireFormatLite24WriteMessageMaybeToArrayEiRKNS0_11MessageLiteEPNS0_2io17CodedOutputStreamE @3716
    _ZN6google8protobuf8internal14WireFormatLite27ReadPackedPrimitiveNoInlineIbLNS2_9FieldTypeE8EEEbPNS0_2io16CodedInputStreamEPNS0_13RepeatedFieldIT_EE @3717
    _ZN6google8protobuf8internal14WireFormatLite27ReadPackedPrimitiveNoInlineIdLNS2_9FieldTypeE1EEEbPNS0_2io16CodedInputStreamEPNS0_13RepeatedFieldIT_EE @3718
    _ZN6google8protobuf8internal14WireFormatLite27ReadPackedPrimitiveNoInlineIfLNS2_9FieldTypeE2EEEbPNS0_2io16CodedInputStreamEPNS0_13RepeatedFieldIT_EE @3719
    _ZN6google8protobuf8internal14WireFormatLite27ReadPackedPrimitiveNoInlineIiLNS2_9FieldTypeE5EEEbPNS0_2io16CodedInputStreamEPNS0_13RepeatedFieldIT_EE @3720
    _ZN6google8protobuf8internal14WireFormatLite27ReadPackedPrimitiveNoInlineIjLNS2_9FieldTypeE13EEEbPNS0_2io16CodedInputStreamEPNS0_13RepeatedFieldIT_EE @3721
    _ZN6google8protobuf8internal14WireFormatLite29ReadRepeatedPrimitiveNoInlineIiLNS2_9FieldTypeE5EEEbijPNS0_2io16CodedInputStreamEPNS0_13RepeatedFieldIT_EE @3722
    _ZN6google8protobuf8internal14WireFormatLite9ReadBytesEPNS0_2io16CodedInputStreamEPSs @3723
    _ZN6google8protobuf8internal14WireFormatLite9SkipFieldEPNS0_2io16CodedInputStreamEj @3724
    _ZN6google8protobuf8internal14WireFormatLite9SkipFieldEPNS0_2io16CodedInputStreamEjPNS3_17CodedOutputStreamE @3725
    _ZN6google8protobuf8internal14WireFormatLite9WriteBoolEibPNS0_2io17CodedOutputStreamE @3726
    _ZN6google8protobuf8internal14WireFormatLite9WriteEnumEiiPNS0_2io17CodedOutputStreamE @3727
    _ZN6google8protobuf8internal15ExtensionFinderD0Ev @3728
    _ZN6google8protobuf8internal15ExtensionFinderD1Ev @3729
    _ZN6google8protobuf8internal15ExtensionFinderD2Ev @3730
    _ZN6google8protobuf8internal15InitEmptyStringEv @3731
    _ZN6google8protobuf8internal15UTF8GenericScanEPKNS1_19UTF8StateMachineObjEPKciPi @3732
    _ZN6google8protobuf8internal16FunctionClosure03RunEv @3733
    _ZN6google8protobuf8internal16FunctionClosure0D0Ev @3734
    _ZN6google8protobuf8internal16FunctionClosure0D1Ev @3735
    _ZN6google8protobuf8internal16FunctionClosure0D2Ev @3736
    _ZN6google8protobuf8internal16FunctionClosure1IPSt4pairIPKNS0_20FileDescriptorTablesEPKNS0_14SourceCodeInfoEEE3RunEv @3737
    _ZN6google8protobuf8internal16FunctionClosure1IPSt4pairIPKNS0_20FileDescriptorTablesEPKNS0_14SourceCodeInfoEEED0Ev @3738
    _ZN6google8protobuf8internal16FunctionClosure1IPSt4pairIPKNS0_20FileDescriptorTablesEPKNS0_14SourceCodeInfoEEED1Ev @3739
    _ZN6google8protobuf8internal17AllAreInitializedINS0_16RepeatedPtrFieldIN4aubo5robot13communication24ProtoRobotCommonResponseEEEEEbRKT_ @3740
    _ZN6google8protobuf8internal17AllAreInitializedINS0_16RepeatedPtrFieldIN4aubo5robot6common14ProtoRoadPointEEEEEbRKT_ @3741
    _ZN6google8protobuf8internal17AllAreInitializedINS0_16RepeatedPtrFieldIN4aubo5robot6common19RobotCommonResponseEEEEEbRKT_ @3742
    _ZN6google8protobuf8internal17AllAreInitializedINS0_16RepeatedPtrFieldIN4aubo5robot6common3OriEEEEEbRKT_ @3743
    _ZN6google8protobuf8internal17AllAreInitializedINS0_16RepeatedPtrFieldIN4aubo5robot6common3PosEEEEEbRKT_ @3744
    _ZN6google8protobuf8internal17AllAreInitializedINS0_16RepeatedPtrFieldINS0_15DescriptorProtoEEEEEbRKT_ @3745
    _ZN6google8protobuf8internal17AllAreInitializedINS0_16RepeatedPtrFieldINS0_19EnumDescriptorProtoEEEEEbRKT_ @3746
    _ZN6google8protobuf8internal17AllAreInitializedINS0_16RepeatedPtrFieldINS0_19UninterpretedOptionEEEEEbRKT_ @3747
    _ZN6google8protobuf8internal17AllAreInitializedINS0_16RepeatedPtrFieldINS0_20FieldDescriptorProtoEEEEEbRKT_ @3748
    _ZN6google8protobuf8internal17AllAreInitializedINS0_16RepeatedPtrFieldINS0_28UninterpretedOption_NamePartEEEEEbRKT_ @3749
    _ZN6google8protobuf8internal17DefaultLogHandlerENS0_8LogLevelEPKciRKSs @3750
    _ZN6google8protobuf8internal17DeleteEmptyStringEv @3751
    _ZN6google8protobuf8internal18shutdown_functionsE @3752 DATA
    _ZN6google8protobuf8internal20InitLogSilencerCountEv @3753
    _ZN6google8protobuf8internal20RepeatedPtrFieldBase12AddAllocatedINS0_16RepeatedPtrFieldINS0_11MessageLiteEE11TypeHandlerEEEvPNT_4TypeE @3754
    _ZN6google8protobuf8internal20RepeatedPtrFieldBase4SwapEPS2_ @3755
    _ZN6google8protobuf8internal20RepeatedPtrFieldBase7ReserveEi @3756
    _ZN6google8protobuf8internal20RepeatedPtrFieldBase9MergeFromINS0_16RepeatedPtrFieldINS0_15DescriptorProtoEE11TypeHandlerEEEvRKS2_ @3757
    _ZN6google8protobuf8internal20RepeatedPtrFieldBase9MergeFromINS0_16RepeatedPtrFieldINS0_19EnumDescriptorProtoEE11TypeHandlerEEEvRKS2_ @3758
    _ZN6google8protobuf8internal20RepeatedPtrFieldBase9MergeFromINS0_16RepeatedPtrFieldINS0_19UninterpretedOptionEE11TypeHandlerEEEvRKS2_ @3759
    _ZN6google8protobuf8internal20RepeatedPtrFieldBase9MergeFromINS0_16RepeatedPtrFieldINS0_20FieldDescriptorProtoEE11TypeHandlerEEEvRKS2_ @3760
    _ZN6google8protobuf8internal21InitShutdownFunctionsEv @3761
    _ZN6google8protobuf8internal21StringTypeHandlerBase3NewEv @3762
    _ZN6google8protobuf8internal21StringTypeHandlerBase6DeleteEPSs @3763
    _ZN6google8protobuf8internal22DeleteLogSilencerCountEv @3764
    _ZN6google8protobuf8internal22MessageSetFieldSkipper19SkipMessageSetFieldEPNS0_2io16CodedInputStreamEi @3765
    _ZN6google8protobuf8internal22MessageSetFieldSkipperD0Ev @3766
    _ZN6google8protobuf8internal22MessageSetFieldSkipperD1Ev @3767
    _ZN6google8protobuf8internal23IsStructurallyValidUTF8EPKci @3768
    _ZN6google8protobuf8internal23empty_string_once_init_E @3769 DATA
    _ZN6google8protobuf8internal23shutdown_functions_initE @3770 DATA
    _ZN6google8protobuf8internal24GeneratedExtensionFinder4FindEiPNS1_13ExtensionInfoE @3771
    _ZN6google8protobuf8internal24GeneratedExtensionFinderD0Ev @3772
    _ZN6google8protobuf8internal24GeneratedExtensionFinderD1Ev @3773
    _ZN6google8protobuf8internal24InitLogSilencerCountOnceEv @3774
    _ZN6google8protobuf8internal24RepeatedStringTypeTraits23default_repeated_field_E @3775 DATA
    _ZN6google8protobuf8internal24UTF8GenericScanFastAsciiEPKNS1_19UTF8StateMachineObjEPKciPi @3776
    _ZN6google8protobuf8internal24log_silencer_count_init_E @3777 DATA
    _ZN6google8protobuf8internal24shutdown_functions_mutexE @3778 DATA
    _ZN6google8protobuf8internal26GeneratedMessageReflectionC1EPKNS0_10DescriptorEPKNS0_7MessageEPKiiiiPKNS0_14DescriptorPoolEPNS0_14MessageFactoryEi @3779
    _ZN6google8protobuf8internal26GeneratedMessageReflectionC1EPKNS0_10DescriptorEPKNS0_7MessageEPKiiiiPKviPKNS0_14DescriptorPoolEPNS0_14MessageFactoryEi @3780
    _ZN6google8protobuf8internal26GeneratedMessageReflectionC2EPKNS0_10DescriptorEPKNS0_7MessageEPKiiiiPKNS0_14DescriptorPoolEPNS0_14MessageFactoryEi @3781
    _ZN6google8protobuf8internal26GeneratedMessageReflectionC2EPKNS0_10DescriptorEPKNS0_7MessageEPKiiiiPKviPKNS0_14DescriptorPoolEPNS0_14MessageFactoryEi @3782
    _ZN6google8protobuf8internal26GeneratedMessageReflectionD0Ev @3783
    _ZN6google8protobuf8internal26GeneratedMessageReflectionD1Ev @3784
    _ZN6google8protobuf8internal26GeneratedMessageReflectionD2Ev @3785
    _ZN6google8protobuf8internal27GetEmptyStringAlreadyInitedEv @3786
    _ZN6google8protobuf8internal27UnknownFieldSetFieldSkipper11SkipMessageEPNS0_2io16CodedInputStreamE @3787
    _ZN6google8protobuf8internal27UnknownFieldSetFieldSkipper15SkipUnknownEnumEii @3788
    _ZN6google8protobuf8internal27UnknownFieldSetFieldSkipper9SkipFieldEPNS0_2io16CodedInputStreamEj @3789
    _ZN6google8protobuf8internal27UnknownFieldSetFieldSkipperD0Ev @3790
    _ZN6google8protobuf8internal27UnknownFieldSetFieldSkipperD1Ev @3791
    _ZN6google8protobuf8internal28DestroyDefaultRepeatedFieldsEv @3792
    _ZN6google8protobuf8internal28StringSpaceUsedExcludingSelfERKSs @3793
    _ZN6google8protobuf8internal29CodedOutputStreamFieldSkipper11SkipMessageEPNS0_2io16CodedInputStreamE @3794
    _ZN6google8protobuf8internal29CodedOutputStreamFieldSkipper15SkipUnknownEnumEii @3795
    _ZN6google8protobuf8internal29CodedOutputStreamFieldSkipper9SkipFieldEPNS0_2io16CodedInputStreamEj @3796
    _ZN6google8protobuf8internal29CodedOutputStreamFieldSkipperD0Ev @3797
    _ZN6google8protobuf8internal29CodedOutputStreamFieldSkipperD1Ev @3798
    _ZN6google8protobuf8internal29DescriptorPoolExtensionFinder4FindEiPNS1_13ExtensionInfoE @3799
    _ZN6google8protobuf8internal29DescriptorPoolExtensionFinderD0Ev @3800
    _ZN6google8protobuf8internal29DescriptorPoolExtensionFinderD1Ev @3801
    _ZN6google8protobuf8internal31InitializeDefaultRepeatedFieldsEv @3802
    _ZN6google8protobuf8internal32AtomicOps_Internalx86CPUFeaturesE @3803 DATA
    _ZN6google8protobuf8internal32RepeatedMessageGenericTypeTraits23default_repeated_field_E @3804 DATA
    _ZN6google8protobuf8internal34RepeatedPrimitiveGenericTypeTraits28default_repeated_field_bool_E @3805 DATA
    _ZN6google8protobuf8internal34RepeatedPrimitiveGenericTypeTraits29default_repeated_field_float_E @3806 DATA
    _ZN6google8protobuf8internal34RepeatedPrimitiveGenericTypeTraits29default_repeated_field_int32_E @3807 DATA
    _ZN6google8protobuf8internal34RepeatedPrimitiveGenericTypeTraits29default_repeated_field_int64_E @3808 DATA
    _ZN6google8protobuf8internal34RepeatedPrimitiveGenericTypeTraits30default_repeated_field_double_E @3809 DATA
    _ZN6google8protobuf8internal34RepeatedPrimitiveGenericTypeTraits30default_repeated_field_uint32_E @3810 DATA
    _ZN6google8protobuf8internal34RepeatedPrimitiveGenericTypeTraits30default_repeated_field_uint64_E @3811 DATA
    _ZN6google8protobuf8internal34static_repeated_fields_initializerE @3812 DATA
    _ZN6google8protobuf8internal3NaNEv @3813
    _ZN6google8protobuf8internal5Mutex10AssertHeldEv @3814
    _ZN6google8protobuf8internal5Mutex4LockEv @3815
    _ZN6google8protobuf8internal5Mutex6UnlockEv @3816
    _ZN6google8protobuf8internal5MutexC1Ev @3817
    _ZN6google8protobuf8internal5MutexC2Ev @3818
    _ZN6google8protobuf8internal5MutexD1Ev @3819
    _ZN6google8protobuf8internal5MutexD2Ev @3820
    _ZN6google8protobuf8internal8InfinityEv @3821
    _ZN6google8protobuf8safe_intESsPi @3822
    _ZN6google8protobuf9DoNothingEv @3823
    _ZN9__gnu_cxx13new_allocatorI10wayPoint_SE10deallocateEPS1_j @3824
    _ZN9__gnu_cxx13new_allocatorI10wayPoint_SE7destroyEPS1_ @3825
    _ZN9__gnu_cxx13new_allocatorI10wayPoint_SE8allocateEjPKv @3826
    _ZN9__gnu_cxx13new_allocatorI10wayPoint_SE9constructEPS1_RKS1_ @3827
    _ZN9__gnu_cxx14__alloc_traitsISaI10wayPoint_SEE10deallocateERS2_PS1_j @3828
    _ZN9__gnu_cxx14__alloc_traitsISaI10wayPoint_SEE7destroyERS2_PS1_ @3829
    _ZN9__gnu_cxx14__alloc_traitsISaI10wayPoint_SEE8allocateERS2_j @3830
    _ZN9__gnu_cxx14__alloc_traitsISaI10wayPoint_SEE8max_sizeERKS2_ @3831
    _ZN9__gnu_cxx14__alloc_traitsISaI10wayPoint_SEE9constructIS1_EEvRS2_PS1_RKT_ @3832
    _ZN9__gnu_cxx17__normal_iteratorIP10wayPoint_SSt6vectorIS1_SaIS1_EEEC1ERKS2_ @3833
    _ZN9__gnu_cxxmiIP10wayPoint_SSt6vectorIS1_SaIS1_EEEENS_17__normal_iteratorIT_T0_E15difference_typeERKS9_SC_ @3834
    _ZN9rapidjson12GenericValueINS_4UTF8IcEENS_19MemoryPoolAllocatorINS_12CrtAllocatorEEEE9AddMemberENS_16GenericStringRefIcEERS6_RS5_ @3835
    _ZN9rapidjson12GenericValueINS_4UTF8IcEENS_19MemoryPoolAllocatorINS_12CrtAllocatorEEEE9AddMemberENS_16GenericStringRefIcEES8_RS5_ @3836
    _ZN9rapidjson12GenericValueINS_4UTF8IcEENS_19MemoryPoolAllocatorINS_12CrtAllocatorEEEEixIKcEENS_8internal9DisableIfINS9_15RemoveSfinaeTagIPFRNS9_9SfinaeTagENS9_7NotExprINS9_6IsSameINS9_11RemoveConstIT_E4TypeEcEEEEEE4TypeERS6_E4TypeEPSH_ @3837
    _ZN9rapidjson13GenericReaderINS_4UTF8IcEES2_NS_12CrtAllocatorEE10ParseValueILj0ENS_19GenericStringStreamIS2_EENS_15GenericDocumentIS2_NS_19MemoryPoolAllocatorIS3_EES3_EEEEvRT0_RT1_ @3838
    _ZN9rapidjson13GenericReaderINS_4UTF8IcEES2_NS_12CrtAllocatorEE11ParseNumberILj0ENS_19GenericStringStreamIS2_EENS_15GenericDocumentIS2_NS_19MemoryPoolAllocatorIS3_EES3_EEEEvRT0_RT1_ @3839
    _ZN9rapidjson13GenericReaderINS_4UTF8IcEES2_NS_12CrtAllocatorEE11ParseStringILj0ENS_19GenericStringStreamIS2_EENS_15GenericDocumentIS2_NS_19MemoryPoolAllocatorIS3_EES3_EEEEvRT0_RT1_b @3840
    _ZN9rapidjson14SkipWhitespaceINS_19GenericStringStreamINS_4UTF8IcEEEEEEvRT_ @3841
    _ZN9rapidjson15GenericDocumentINS_4UTF8IcEENS_19MemoryPoolAllocatorINS_12CrtAllocatorEEES4_E8EndArrayEj @3842
    _ZN9rapidjson15GenericDocumentINS_4UTF8IcEENS_19MemoryPoolAllocatorINS_12CrtAllocatorEEES4_ED1Ev @3843
    _ZN9rapidjson19MemoryPoolAllocatorINS_12CrtAllocatorEE6MallocEj @3844
    _ZN9rapidjson6WriterINS_19GenericStringBufferINS_4UTF8IcEENS_12CrtAllocatorEEES3_S3_S4_Lj0EE6PrefixENS_4TypeE @3845
    _ZN9rapidjson8internal5StackINS_12CrtAllocatorEE4PushIcEEPT_j @3846
    _ZN9rapidjson8internal5StackINS_12CrtAllocatorEE6ExpandIcEEvj @3847
    _ZN9rapidjson8internal6u64toaEyPc @3848
    _ZNK20RobotControlServices28getRobotMoveAbnormalStopFlagEv @3849
    _ZNK20RobotControlServices35getRobotMoveAtTrackTargetSignalFlagEv @3850
    _ZNK20RobotControlServices36getRobotMoveAtTrackTargetPosMutexPtrEv @3851
    _ZNK20RobotControlServices39getRobotMoveAtTrackTargetPosConditonPtrEv @3852
    _ZNK4aubo5robot13communication10OriginPose11GetMetadataEv @3853
    _ZNK4aubo5robot13communication10OriginPose13GetCachedSizeEv @3854
    _ZNK4aubo5robot13communication10OriginPose13IsInitializedEv @3855
    _ZNK4aubo5robot13communication10OriginPose13SetCachedSizeEi @3856
    _ZNK4aubo5robot13communication10OriginPose24SerializeWithCachedSizesEPN6google8protobuf2io17CodedOutputStreamE @3857
    _ZNK4aubo5robot13communication10OriginPose31SerializeWithCachedSizesToArrayEPh @3858
    _ZNK4aubo5robot13communication10OriginPose3NewEv @3859
    _ZNK4aubo5robot13communication10OriginPose8ByteSizeEv @3860
    _ZNK4aubo5robot13communication11JointStatus11GetMetadataEv @3861
    _ZNK4aubo5robot13communication11JointStatus13GetCachedSizeEv @3862
    _ZNK4aubo5robot13communication11JointStatus13IsInitializedEv @3863
    _ZNK4aubo5robot13communication11JointStatus13SetCachedSizeEi @3864
    _ZNK4aubo5robot13communication11JointStatus24SerializeWithCachedSizesEPN6google8protobuf2io17CodedOutputStreamE @3865
    _ZNK4aubo5robot13communication11JointStatus31SerializeWithCachedSizesToArrayEPh @3866
    _ZNK4aubo5robot13communication11JointStatus3NewEv @3867
    _ZNK4aubo5robot13communication11JointStatus8ByteSizeEv @3868
    _ZNK4aubo5robot13communication12JointVersion11GetMetadataEv @3869
    _ZNK4aubo5robot13communication12JointVersion13GetCachedSizeEv @3870
    _ZNK4aubo5robot13communication12JointVersion13IsInitializedEv @3871
    _ZNK4aubo5robot13communication12JointVersion13SetCachedSizeEi @3872
    _ZNK4aubo5robot13communication12JointVersion24SerializeWithCachedSizesEPN6google8protobuf2io17CodedOutputStreamE @3873
    _ZNK4aubo5robot13communication12JointVersion31SerializeWithCachedSizesToArrayEPh @3874
    _ZNK4aubo5robot13communication12JointVersion3NewEv @3875
    _ZNK4aubo5robot13communication12JointVersion8ByteSizeEv @3876
    _ZNK4aubo5robot13communication13RobotTcpParam11GetMetadataEv @3877
    _ZNK4aubo5robot13communication13RobotTcpParam13GetCachedSizeEv @3878
    _ZNK4aubo5robot13communication13RobotTcpParam13IsInitializedEv @3879
    _ZNK4aubo5robot13communication13RobotTcpParam13SetCachedSizeEi @3880
    _ZNK4aubo5robot13communication13RobotTcpParam24SerializeWithCachedSizesEPN6google8protobuf2io17CodedOutputStreamE @3881
    _ZNK4aubo5robot13communication13RobotTcpParam31SerializeWithCachedSizesToArrayEPh @3882
    _ZNK4aubo5robot13communication13RobotTcpParam3NewEv @3883
    _ZNK4aubo5robot13communication13RobotTcpParam8ByteSizeEv @3884
    _ZNK4aubo5robot13communication14RobotDiagnosis11GetMetadataEv @3885
    _ZNK4aubo5robot13communication14RobotDiagnosis13GetCachedSizeEv @3886
    _ZNK4aubo5robot13communication14RobotDiagnosis13IsInitializedEv @3887
    _ZNK4aubo5robot13communication14RobotDiagnosis13SetCachedSizeEi @3888
    _ZNK4aubo5robot13communication14RobotDiagnosis24SerializeWithCachedSizesEPN6google8protobuf2io17CodedOutputStreamE @3889
    _ZNK4aubo5robot13communication14RobotDiagnosis31SerializeWithCachedSizesToArrayEPh @3890
    _ZNK4aubo5robot13communication14RobotDiagnosis3NewEv @3891
    _ZNK4aubo5robot13communication14RobotDiagnosis8ByteSizeEv @3892
    _ZNK4aubo5robot13communication15OurRobotDevInfo11GetMetadataEv @3893
    _ZNK4aubo5robot13communication15OurRobotDevInfo13GetCachedSizeEv @3894
    _ZNK4aubo5robot13communication15OurRobotDevInfo13IsInitializedEv @3895
    _ZNK4aubo5robot13communication15OurRobotDevInfo13SetCachedSizeEi @3896
    _ZNK4aubo5robot13communication15OurRobotDevInfo24SerializeWithCachedSizesEPN6google8protobuf2io17CodedOutputStreamE @3897
    _ZNK4aubo5robot13communication15OurRobotDevInfo31SerializeWithCachedSizesToArrayEPh @3898
    _ZNK4aubo5robot13communication15OurRobotDevInfo3NewEv @3899
    _ZNK4aubo5robot13communication15OurRobotDevInfo8ByteSizeEv @3900
    _ZNK4aubo5robot13communication15RobotToolConfig11GetMetadataEv @3901
    _ZNK4aubo5robot13communication15RobotToolConfig13GetCachedSizeEv @3902
    _ZNK4aubo5robot13communication15RobotToolConfig13IsInitializedEv @3903
    _ZNK4aubo5robot13communication15RobotToolConfig13SetCachedSizeEi @3904
    _ZNK4aubo5robot13communication15RobotToolConfig24SerializeWithCachedSizesEPN6google8protobuf2io17CodedOutputStreamE @3905
    _ZNK4aubo5robot13communication15RobotToolConfig31SerializeWithCachedSizesToArrayEPh @3906
    _ZNK4aubo5robot13communication15RobotToolConfig3NewEv @3907
    _ZNK4aubo5robot13communication15RobotToolConfig8ByteSizeEv @3908
    _ZNK4aubo5robot13communication15RobotToolStatus11GetMetadataEv @3909
    _ZNK4aubo5robot13communication15RobotToolStatus13GetCachedSizeEv @3910
    _ZNK4aubo5robot13communication15RobotToolStatus13IsInitializedEv @3911
    _ZNK4aubo5robot13communication15RobotToolStatus13SetCachedSizeEi @3912
    _ZNK4aubo5robot13communication15RobotToolStatus24SerializeWithCachedSizesEPN6google8protobuf2io17CodedOutputStreamE @3913
    _ZNK4aubo5robot13communication15RobotToolStatus31SerializeWithCachedSizesToArrayEPh @3914
    _ZNK4aubo5robot13communication15RobotToolStatus3NewEv @3915
    _ZNK4aubo5robot13communication15RobotToolStatus8ByteSizeEv @3916
    _ZNK4aubo5robot13communication15toolAllIOStatus11GetMetadataEv @3917
    _ZNK4aubo5robot13communication15toolAllIOStatus13GetCachedSizeEv @3918
    _ZNK4aubo5robot13communication15toolAllIOStatus13IsInitializedEv @3919
    _ZNK4aubo5robot13communication15toolAllIOStatus13SetCachedSizeEi @3920
    _ZNK4aubo5robot13communication15toolAllIOStatus24SerializeWithCachedSizesEPN6google8protobuf2io17CodedOutputStreamE @3921
    _ZNK4aubo5robot13communication15toolAllIOStatus31SerializeWithCachedSizesToArrayEPh @3922
    _ZNK4aubo5robot13communication15toolAllIOStatus3NewEv @3923
    _ZNK4aubo5robot13communication15toolAllIOStatus8ByteSizeEv @3924
    _ZNK4aubo5robot13communication16OrpeSafetyStatus11GetMetadataEv @3925
    _ZNK4aubo5robot13communication16OrpeSafetyStatus13GetCachedSizeEv @3926
    _ZNK4aubo5robot13communication16OrpeSafetyStatus13IsInitializedEv @3927
    _ZNK4aubo5robot13communication16OrpeSafetyStatus13SetCachedSizeEi @3928
    _ZNK4aubo5robot13communication16OrpeSafetyStatus24SerializeWithCachedSizesEPN6google8protobuf2io17CodedOutputStreamE @3929
    _ZNK4aubo5robot13communication16OrpeSafetyStatus31SerializeWithCachedSizesToArrayEPh @3930
    _ZNK4aubo5robot13communication16OrpeSafetyStatus3NewEv @3931
    _ZNK4aubo5robot13communication16OrpeSafetyStatus8ByteSizeEv @3932
    _ZNK4aubo5robot13communication17ProtoRequestLogin11GetMetadataEv @3933
    _ZNK4aubo5robot13communication17ProtoRequestLogin13GetCachedSizeEv @3934
    _ZNK4aubo5robot13communication17ProtoRequestLogin13IsInitializedEv @3935
    _ZNK4aubo5robot13communication17ProtoRequestLogin13SetCachedSizeEi @3936
    _ZNK4aubo5robot13communication17ProtoRequestLogin24SerializeWithCachedSizesEPN6google8protobuf2io17CodedOutputStreamE @3937
    _ZNK4aubo5robot13communication17ProtoRequestLogin31SerializeWithCachedSizesToArrayEPh @3938
    _ZNK4aubo5robot13communication17ProtoRequestLogin3NewEv @3939
    _ZNK4aubo5robot13communication17ProtoRequestLogin8ByteSizeEv @3940
    _ZNK4aubo5robot13communication17RobotExtDiagnosis11GetMetadataEv @3941
    _ZNK4aubo5robot13communication17RobotExtDiagnosis13GetCachedSizeEv @3942
    _ZNK4aubo5robot13communication17RobotExtDiagnosis13IsInitializedEv @3943
    _ZNK4aubo5robot13communication17RobotExtDiagnosis13SetCachedSizeEi @3944
    _ZNK4aubo5robot13communication17RobotExtDiagnosis24SerializeWithCachedSizesEPN6google8protobuf2io17CodedOutputStreamE @3945
    _ZNK4aubo5robot13communication17RobotExtDiagnosis31SerializeWithCachedSizesToArrayEPh @3946
    _ZNK4aubo5robot13communication17RobotExtDiagnosis3NewEv @3947
    _ZNK4aubo5robot13communication17RobotExtDiagnosis8ByteSizeEv @3948
    _ZNK4aubo5robot13communication17RobotSafetyConfig11GetMetadataEv @3949
    _ZNK4aubo5robot13communication17RobotSafetyConfig13GetCachedSizeEv @3950
    _ZNK4aubo5robot13communication17RobotSafetyConfig13IsInitializedEv @3951
    _ZNK4aubo5robot13communication17RobotSafetyConfig13SetCachedSizeEi @3952
    _ZNK4aubo5robot13communication17RobotSafetyConfig24SerializeWithCachedSizesEPN6google8protobuf2io17CodedOutputStreamE @3953
    _ZNK4aubo5robot13communication17RobotSafetyConfig31SerializeWithCachedSizesToArrayEPh @3954
    _ZNK4aubo5robot13communication17RobotSafetyConfig3NewEv @3955
    _ZNK4aubo5robot13communication17RobotSafetyConfig8ByteSizeEv @3956
    _ZNK4aubo5robot13communication17ToolDigitalStatus11GetMetadataEv @3957
    _ZNK4aubo5robot13communication17ToolDigitalStatus13GetCachedSizeEv @3958
    _ZNK4aubo5robot13communication17ToolDigitalStatus13IsInitializedEv @3959
    _ZNK4aubo5robot13communication17ToolDigitalStatus13SetCachedSizeEi @3960
    _ZNK4aubo5robot13communication17ToolDigitalStatus24SerializeWithCachedSizesEPN6google8protobuf2io17CodedOutputStreamE @3961
    _ZNK4aubo5robot13communication17ToolDigitalStatus31SerializeWithCachedSizesToArrayEPh @3962
    _ZNK4aubo5robot13communication17ToolDigitalStatus3NewEv @3963
    _ZNK4aubo5robot13communication17ToolDigitalStatus8ByteSizeEv @3964
    _ZNK4aubo5robot13communication19InterfaceBoardError11GetMetadataEv @3965
    _ZNK4aubo5robot13communication19InterfaceBoardError13GetCachedSizeEv @3966
    _ZNK4aubo5robot13communication19InterfaceBoardError13IsInitializedEv @3967
    _ZNK4aubo5robot13communication19InterfaceBoardError13SetCachedSizeEi @3968
    _ZNK4aubo5robot13communication19InterfaceBoardError24SerializeWithCachedSizesEPN6google8protobuf2io17CodedOutputStreamE @3969
    _ZNK4aubo5robot13communication19InterfaceBoardError31SerializeWithCachedSizesToArrayEPh @3970
    _ZNK4aubo5robot13communication19InterfaceBoardError3NewEv @3971
    _ZNK4aubo5robot13communication19InterfaceBoardError8ByteSizeEv @3972
    _ZNK4aubo5robot13communication21RobotCollisionCurrent11GetMetadataEv @3973
    _ZNK4aubo5robot13communication21RobotCollisionCurrent13GetCachedSizeEv @3974
    _ZNK4aubo5robot13communication21RobotCollisionCurrent13IsInitializedEv @3975
    _ZNK4aubo5robot13communication21RobotCollisionCurrent13SetCachedSizeEi @3976
    _ZNK4aubo5robot13communication21RobotCollisionCurrent24SerializeWithCachedSizesEPN6google8protobuf2io17CodedOutputStreamE @3977
    _ZNK4aubo5robot13communication21RobotCollisionCurrent31SerializeWithCachedSizesToArrayEPh @3978
    _ZNK4aubo5robot13communication21RobotCollisionCurrent3NewEv @3979
    _ZNK4aubo5robot13communication21RobotCollisionCurrent8ByteSizeEv @3980
    _ZNK4aubo5robot13communication21RobotGravityComponent11GetMetadataEv @3981
    _ZNK4aubo5robot13communication21RobotGravityComponent13GetCachedSizeEv @3982
    _ZNK4aubo5robot13communication21RobotGravityComponent13IsInitializedEv @3983
    _ZNK4aubo5robot13communication21RobotGravityComponent13SetCachedSizeEi @3984
    _ZNK4aubo5robot13communication21RobotGravityComponent24SerializeWithCachedSizesEPN6google8protobuf2io17CodedOutputStreamE @3985
    _ZNK4aubo5robot13communication21RobotGravityComponent31SerializeWithCachedSizesToArrayEPh @3986
    _ZNK4aubo5robot13communication21RobotGravityComponent3NewEv @3987
    _ZNK4aubo5robot13communication21RobotGravityComponent8ByteSizeEv @3988
    _ZNK4aubo5robot13communication22ProtoRobotAnalogIODesc11GetMetadataEv @3989
    _ZNK4aubo5robot13communication22ProtoRobotAnalogIODesc13GetCachedSizeEv @3990
    _ZNK4aubo5robot13communication22ProtoRobotAnalogIODesc13IsInitializedEv @3991
    _ZNK4aubo5robot13communication22ProtoRobotAnalogIODesc13SetCachedSizeEi @3992
    _ZNK4aubo5robot13communication22ProtoRobotAnalogIODesc24SerializeWithCachedSizesEPN6google8protobuf2io17CodedOutputStreamE @3993
    _ZNK4aubo5robot13communication22ProtoRobotAnalogIODesc31SerializeWithCachedSizesToArrayEPh @3994
    _ZNK4aubo5robot13communication22ProtoRobotAnalogIODesc3NewEv @3995
    _ZNK4aubo5robot13communication22ProtoRobotAnalogIODesc8ByteSizeEv @3996
    _ZNK4aubo5robot13communication24ProtoRobotCommonResponse11GetMetadataEv @3997
    _ZNK4aubo5robot13communication24ProtoRobotCommonResponse13GetCachedSizeEv @3998
    _ZNK4aubo5robot13communication24ProtoRobotCommonResponse13IsInitializedEv @3999
    _ZNK4aubo5robot13communication24ProtoRobotCommonResponse13SetCachedSizeEi @4000
    _ZNK4aubo5robot13communication24ProtoRobotCommonResponse24SerializeWithCachedSizesEPN6google8protobuf2io17CodedOutputStreamE @4001
    _ZNK4aubo5robot13communication24ProtoRobotCommonResponse31SerializeWithCachedSizesToArrayEPh @4002
    _ZNK4aubo5robot13communication24ProtoRobotCommonResponse3NewEv @4003
    _ZNK4aubo5robot13communication24ProtoRobotCommonResponse8ByteSizeEv @4004
    _ZNK4aubo5robot13communication25ProtoRobotDiagnosisIODesc11GetMetadataEv @4005
    _ZNK4aubo5robot13communication25ProtoRobotDiagnosisIODesc13GetCachedSizeEv @4006
    _ZNK4aubo5robot13communication25ProtoRobotDiagnosisIODesc13IsInitializedEv @4007
    _ZNK4aubo5robot13communication25ProtoRobotDiagnosisIODesc13SetCachedSizeEi @4008
    _ZNK4aubo5robot13communication25ProtoRobotDiagnosisIODesc24SerializeWithCachedSizesEPN6google8protobuf2io17CodedOutputStreamE @4009
    _ZNK4aubo5robot13communication25ProtoRobotDiagnosisIODesc31SerializeWithCachedSizesToArrayEPh @4010
    _ZNK4aubo5robot13communication25ProtoRobotDiagnosisIODesc3NewEv @4011
    _ZNK4aubo5robot13communication25ProtoRobotDiagnosisIODesc8ByteSizeEv @4012
    _ZNK4aubo5robot13communication27ProtoCommunicationIntVector11GetMetadataEv @4013
    _ZNK4aubo5robot13communication27ProtoCommunicationIntVector13GetCachedSizeEv @4014
    _ZNK4aubo5robot13communication27ProtoCommunicationIntVector13IsInitializedEv @4015
    _ZNK4aubo5robot13communication27ProtoCommunicationIntVector13SetCachedSizeEi @4016
    _ZNK4aubo5robot13communication27ProtoCommunicationIntVector24SerializeWithCachedSizesEPN6google8protobuf2io17CodedOutputStreamE @4017
    _ZNK4aubo5robot13communication27ProtoCommunicationIntVector31SerializeWithCachedSizesToArrayEPh @4018
    _ZNK4aubo5robot13communication27ProtoCommunicationIntVector3NewEv @4019
    _ZNK4aubo5robot13communication27ProtoCommunicationIntVector8ByteSizeEv @4020
    _ZNK4aubo5robot13communication27protoSafeCommunicationParam11GetMetadataEv @4021
    _ZNK4aubo5robot13communication27protoSafeCommunicationParam13GetCachedSizeEv @4022
    _ZNK4aubo5robot13communication27protoSafeCommunicationParam13IsInitializedEv @4023
    _ZNK4aubo5robot13communication27protoSafeCommunicationParam13SetCachedSizeEi @4024
    _ZNK4aubo5robot13communication27protoSafeCommunicationParam24SerializeWithCachedSizesEPN6google8protobuf2io17CodedOutputStreamE @4025
    _ZNK4aubo5robot13communication27protoSafeCommunicationParam31SerializeWithCachedSizesToArrayEPh @4026
    _ZNK4aubo5robot13communication27protoSafeCommunicationParam3NewEv @4027
    _ZNK4aubo5robot13communication27protoSafeCommunicationParam8ByteSizeEv @4028
    _ZNK4aubo5robot13communication28ProtoCommunicationRobotEvent11GetMetadataEv @4029
    _ZNK4aubo5robot13communication28ProtoCommunicationRobotEvent13GetCachedSizeEv @4030
    _ZNK4aubo5robot13communication28ProtoCommunicationRobotEvent13IsInitializedEv @4031
    _ZNK4aubo5robot13communication28ProtoCommunicationRobotEvent13SetCachedSizeEi @4032
    _ZNK4aubo5robot13communication28ProtoCommunicationRobotEvent24SerializeWithCachedSizesEPN6google8protobuf2io17CodedOutputStreamE @4033
    _ZNK4aubo5robot13communication28ProtoCommunicationRobotEvent31SerializeWithCachedSizesToArrayEPh @4034
    _ZNK4aubo5robot13communication28ProtoCommunicationRobotEvent3NewEv @4035
    _ZNK4aubo5robot13communication28ProtoCommunicationRobotEvent8ByteSizeEv @4036
    _ZNK4aubo5robot13communication29ProtoCommunicationGeneralData11GetMetadataEv @4037
    _ZNK4aubo5robot13communication29ProtoCommunicationGeneralData13GetCachedSizeEv @4038
    _ZNK4aubo5robot13communication29ProtoCommunicationGeneralData13IsInitializedEv @4039
    _ZNK4aubo5robot13communication29ProtoCommunicationGeneralData13SetCachedSizeEi @4040
    _ZNK4aubo5robot13communication29ProtoCommunicationGeneralData24SerializeWithCachedSizesEPN6google8protobuf2io17CodedOutputStreamE @4041
    _ZNK4aubo5robot13communication29ProtoCommunicationGeneralData31SerializeWithCachedSizesToArrayEPh @4042
    _ZNK4aubo5robot13communication29ProtoCommunicationGeneralData3NewEv @4043
    _ZNK4aubo5robot13communication29ProtoCommunicationGeneralData8ByteSizeEv @4044
    _ZNK4aubo5robot13communication30ProtoCommunicationDoubleVector11GetMetadataEv @4045
    _ZNK4aubo5robot13communication30ProtoCommunicationDoubleVector13GetCachedSizeEv @4046
    _ZNK4aubo5robot13communication30ProtoCommunicationDoubleVector13IsInitializedEv @4047
    _ZNK4aubo5robot13communication30ProtoCommunicationDoubleVector13SetCachedSizeEi @4048
    _ZNK4aubo5robot13communication30ProtoCommunicationDoubleVector24SerializeWithCachedSizesEPN6google8protobuf2io17CodedOutputStreamE @4049
    _ZNK4aubo5robot13communication30ProtoCommunicationDoubleVector31SerializeWithCachedSizesToArrayEPh @4050
    _ZNK4aubo5robot13communication30ProtoCommunicationDoubleVector3NewEv @4051
    _ZNK4aubo5robot13communication30ProtoCommunicationDoubleVector8ByteSizeEv @4052
    _ZNK4aubo5robot13communication34ProtoCommunicationOfflineExcitTraj11GetMetadataEv @4053
    _ZNK4aubo5robot13communication34ProtoCommunicationOfflineExcitTraj13GetCachedSizeEv @4054
    _ZNK4aubo5robot13communication34ProtoCommunicationOfflineExcitTraj13IsInitializedEv @4055
    _ZNK4aubo5robot13communication34ProtoCommunicationOfflineExcitTraj13SetCachedSizeEi @4056
    _ZNK4aubo5robot13communication34ProtoCommunicationOfflineExcitTraj24SerializeWithCachedSizesEPN6google8protobuf2io17CodedOutputStreamE @4057
    _ZNK4aubo5robot13communication34ProtoCommunicationOfflineExcitTraj31SerializeWithCachedSizesToArrayEPh @4058
    _ZNK4aubo5robot13communication34ProtoCommunicationOfflineExcitTraj3NewEv @4059
    _ZNK4aubo5robot13communication34ProtoCommunicationOfflineExcitTraj8ByteSizeEv @4060
    _ZNK4aubo5robot13communication35ProtoCommunicationIntVectorResponse11GetMetadataEv @4061
    _ZNK4aubo5robot13communication35ProtoCommunicationIntVectorResponse13GetCachedSizeEv @4062
    _ZNK4aubo5robot13communication35ProtoCommunicationIntVectorResponse13IsInitializedEv @4063
    _ZNK4aubo5robot13communication35ProtoCommunicationIntVectorResponse13SetCachedSizeEi @4064
    _ZNK4aubo5robot13communication35ProtoCommunicationIntVectorResponse24SerializeWithCachedSizesEPN6google8protobuf2io17CodedOutputStreamE @4065
    _ZNK4aubo5robot13communication35ProtoCommunicationIntVectorResponse31SerializeWithCachedSizesToArrayEPh @4066
    _ZNK4aubo5robot13communication35ProtoCommunicationIntVectorResponse3NewEv @4067
    _ZNK4aubo5robot13communication35ProtoCommunicationIntVectorResponse8ByteSizeEv @4068
    _ZNK4aubo5robot13communication35ProtoCommunicationRobotAnalogIOData11GetMetadataEv @4069
    _ZNK4aubo5robot13communication35ProtoCommunicationRobotAnalogIOData13GetCachedSizeEv @4070
    _ZNK4aubo5robot13communication35ProtoCommunicationRobotAnalogIOData13IsInitializedEv @4071
    _ZNK4aubo5robot13communication35ProtoCommunicationRobotAnalogIOData13SetCachedSizeEi @4072
    _ZNK4aubo5robot13communication35ProtoCommunicationRobotAnalogIOData24SerializeWithCachedSizesEPN6google8protobuf2io17CodedOutputStreamE @4073
    _ZNK4aubo5robot13communication35ProtoCommunicationRobotAnalogIOData31SerializeWithCachedSizesToArrayEPh @4074
    _ZNK4aubo5robot13communication35ProtoCommunicationRobotAnalogIOData3NewEv @4075
    _ZNK4aubo5robot13communication35ProtoCommunicationRobotAnalogIOData8ByteSizeEv @4076
    _ZNK4aubo5robot13communication36ProtoCommunicationDynIdentifyResults11GetMetadataEv @4077
    _ZNK4aubo5robot13communication36ProtoCommunicationDynIdentifyResults13GetCachedSizeEv @4078
    _ZNK4aubo5robot13communication36ProtoCommunicationDynIdentifyResults13IsInitializedEv @4079
    _ZNK4aubo5robot13communication36ProtoCommunicationDynIdentifyResults13SetCachedSizeEi @4080
    _ZNK4aubo5robot13communication36ProtoCommunicationDynIdentifyResults24SerializeWithCachedSizesEPN6google8protobuf2io17CodedOutputStreamE @4081
    _ZNK4aubo5robot13communication36ProtoCommunicationDynIdentifyResults31SerializeWithCachedSizesToArrayEPh @4082
    _ZNK4aubo5robot13communication36ProtoCommunicationDynIdentifyResults3NewEv @4083
    _ZNK4aubo5robot13communication36ProtoCommunicationDynIdentifyResults8ByteSizeEv @4084
    _ZNK4aubo5robot13communication36ProtoCommunicationRobotBoardFirmware11GetMetadataEv @4085
    _ZNK4aubo5robot13communication36ProtoCommunicationRobotBoardFirmware13GetCachedSizeEv @4086
    _ZNK4aubo5robot13communication36ProtoCommunicationRobotBoardFirmware13IsInitializedEv @4087
    _ZNK4aubo5robot13communication36ProtoCommunicationRobotBoardFirmware13SetCachedSizeEi @4088
    _ZNK4aubo5robot13communication36ProtoCommunicationRobotBoardFirmware24SerializeWithCachedSizesEPN6google8protobuf2io17CodedOutputStreamE @4089
    _ZNK4aubo5robot13communication36ProtoCommunicationRobotBoardFirmware31SerializeWithCachedSizesToArrayEPh @4090
    _ZNK4aubo5robot13communication36ProtoCommunicationRobotBoardFirmware3NewEv @4091
    _ZNK4aubo5robot13communication36ProtoCommunicationRobotBoardFirmware8ByteSizeEv @4092
    _ZNK4aubo5robot13communication36ProtoCommunicationRobotDiagnosisInfo11GetMetadataEv @4093
    _ZNK4aubo5robot13communication36ProtoCommunicationRobotDiagnosisInfo13GetCachedSizeEv @4094
    _ZNK4aubo5robot13communication36ProtoCommunicationRobotDiagnosisInfo13IsInitializedEv @4095
    _ZNK4aubo5robot13communication36ProtoCommunicationRobotDiagnosisInfo13SetCachedSizeEi @4096
    _ZNK4aubo5robot13communication36ProtoCommunicationRobotDiagnosisInfo24SerializeWithCachedSizesEPN6google8protobuf2io17CodedOutputStreamE @4097
    _ZNK4aubo5robot13communication36ProtoCommunicationRobotDiagnosisInfo31SerializeWithCachedSizesToArrayEPh @4098
    _ZNK4aubo5robot13communication36ProtoCommunicationRobotDiagnosisInfo3NewEv @4099
    _ZNK4aubo5robot13communication36ProtoCommunicationRobotDiagnosisInfo8ByteSizeEv @4100
    _ZNK4aubo5robot13communication37ProtoCommunicationRobotStartupProfile11GetMetadataEv @4101
    _ZNK4aubo5robot13communication37ProtoCommunicationRobotStartupProfile13GetCachedSizeEv @4102
    _ZNK4aubo5robot13communication37ProtoCommunicationRobotStartupProfile13IsInitializedEv @4103
    _ZNK4aubo5robot13communication37ProtoCommunicationRobotStartupProfile13SetCachedSizeEi @4104
    _ZNK4aubo5robot13communication37ProtoCommunicationRobotStartupProfile24SerializeWithCachedSizesEPN6google8protobuf2io17CodedOutputStreamE @4105
    _ZNK4aubo5robot13communication37ProtoCommunicationRobotStartupProfile31SerializeWithCachedSizesToArrayEPh @4106
    _ZNK4aubo5robot13communication37ProtoCommunicationRobotStartupProfile3NewEv @4107
    _ZNK4aubo5robot13communication37ProtoCommunicationRobotStartupProfile8ByteSizeEv @4108
    _ZNK4aubo5robot13communication38ProtoCommunicationDoubleVectorResponse11GetMetadataEv @4109
    _ZNK4aubo5robot13communication38ProtoCommunicationDoubleVectorResponse13GetCachedSizeEv @4110
    _ZNK4aubo5robot13communication38ProtoCommunicationDoubleVectorResponse13IsInitializedEv @4111
    _ZNK4aubo5robot13communication38ProtoCommunicationDoubleVectorResponse13SetCachedSizeEi @4112
    _ZNK4aubo5robot13communication38ProtoCommunicationDoubleVectorResponse24SerializeWithCachedSizesEPN6google8protobuf2io17CodedOutputStreamE @4113
    _ZNK4aubo5robot13communication38ProtoCommunicationDoubleVectorResponse31SerializeWithCachedSizesToArrayEPh @4114
    _ZNK4aubo5robot13communication38ProtoCommunicationDoubleVectorResponse3NewEv @4115
    _ZNK4aubo5robot13communication38ProtoCommunicationDoubleVectorResponse8ByteSizeEv @4116
    _ZNK4aubo5robot13communication38ProtoCommunicationRobotDiagnosisIOData11GetMetadataEv @4117
    _ZNK4aubo5robot13communication38ProtoCommunicationRobotDiagnosisIOData13GetCachedSizeEv @4118
    _ZNK4aubo5robot13communication38ProtoCommunicationRobotDiagnosisIOData13IsInitializedEv @4119
    _ZNK4aubo5robot13communication38ProtoCommunicationRobotDiagnosisIOData13SetCachedSizeEi @4120
    _ZNK4aubo5robot13communication38ProtoCommunicationRobotDiagnosisIOData24SerializeWithCachedSizesEPN6google8protobuf2io17CodedOutputStreamE @4121
    _ZNK4aubo5robot13communication38ProtoCommunicationRobotDiagnosisIOData31SerializeWithCachedSizesToArrayEPh @4122
    _ZNK4aubo5robot13communication38ProtoCommunicationRobotDiagnosisIOData3NewEv @4123
    _ZNK4aubo5robot13communication38ProtoCommunicationRobotDiagnosisIOData8ByteSizeEv @4124
    _ZNK4aubo5robot13communication44ProtoCommunicationEthernetDeviceNameResponse11GetMetadataEv @4125
    _ZNK4aubo5robot13communication44ProtoCommunicationEthernetDeviceNameResponse13GetCachedSizeEv @4126
    _ZNK4aubo5robot13communication44ProtoCommunicationEthernetDeviceNameResponse13IsInitializedEv @4127
    _ZNK4aubo5robot13communication44ProtoCommunicationEthernetDeviceNameResponse13SetCachedSizeEi @4128
    _ZNK4aubo5robot13communication44ProtoCommunicationEthernetDeviceNameResponse24SerializeWithCachedSizesEPN6google8protobuf2io17CodedOutputStreamE @4129
    _ZNK4aubo5robot13communication44ProtoCommunicationEthernetDeviceNameResponse31SerializeWithCachedSizesToArrayEPh @4130
    _ZNK4aubo5robot13communication44ProtoCommunicationEthernetDeviceNameResponse3NewEv @4131
    _ZNK4aubo5robot13communication44ProtoCommunicationEthernetDeviceNameResponse8ByteSizeEv @4132
    _ZNK4aubo5robot13communication45ProtoCommunicationToolAllIOStatusInfoResponse11GetMetadataEv @4133
    _ZNK4aubo5robot13communication45ProtoCommunicationToolAllIOStatusInfoResponse13GetCachedSizeEv @4134
    _ZNK4aubo5robot13communication45ProtoCommunicationToolAllIOStatusInfoResponse13IsInitializedEv @4135
    _ZNK4aubo5robot13communication45ProtoCommunicationToolAllIOStatusInfoResponse13SetCachedSizeEi @4136
    _ZNK4aubo5robot13communication45ProtoCommunicationToolAllIOStatusInfoResponse24SerializeWithCachedSizesEPN6google8protobuf2io17CodedOutputStreamE @4137
    _ZNK4aubo5robot13communication45ProtoCommunicationToolAllIOStatusInfoResponse31SerializeWithCachedSizesToArrayEPh @4138
    _ZNK4aubo5robot13communication45ProtoCommunicationToolAllIOStatusInfoResponse3NewEv @4139
    _ZNK4aubo5robot13communication45ProtoCommunicationToolAllIOStatusInfoResponse8ByteSizeEv @4140
    _ZNK4aubo5robot13communication8TagIoCfg11GetMetadataEv @4141
    _ZNK4aubo5robot13communication8TagIoCfg13GetCachedSizeEv @4142
    _ZNK4aubo5robot13communication8TagIoCfg13IsInitializedEv @4143
    _ZNK4aubo5robot13communication8TagIoCfg13SetCachedSizeEi @4144
    _ZNK4aubo5robot13communication8TagIoCfg24SerializeWithCachedSizesEPN6google8protobuf2io17CodedOutputStreamE @4145
    _ZNK4aubo5robot13communication8TagIoCfg31SerializeWithCachedSizesToArrayEPh @4146
    _ZNK4aubo5robot13communication8TagIoCfg3NewEv @4147
    _ZNK4aubo5robot13communication8TagIoCfg8ByteSizeEv @4148
    _ZNK4aubo5robot13communication8TcpParam11GetMetadataEv @4149
    _ZNK4aubo5robot13communication8TcpParam13GetCachedSizeEv @4150
    _ZNK4aubo5robot13communication8TcpParam13IsInitializedEv @4151
    _ZNK4aubo5robot13communication8TcpParam13SetCachedSizeEi @4152
    _ZNK4aubo5robot13communication8TcpParam24SerializeWithCachedSizesEPN6google8protobuf2io17CodedOutputStreamE @4153
    _ZNK4aubo5robot13communication8TcpParam31SerializeWithCachedSizesToArrayEPh @4154
    _ZNK4aubo5robot13communication8TcpParam3NewEv @4155
    _ZNK4aubo5robot13communication8TcpParam8ByteSizeEv @4156
    _ZNK4aubo5robot13communication9ModbusCfg11GetMetadataEv @4157
    _ZNK4aubo5robot13communication9ModbusCfg13GetCachedSizeEv @4158
    _ZNK4aubo5robot13communication9ModbusCfg13IsInitializedEv @4159
    _ZNK4aubo5robot13communication9ModbusCfg13SetCachedSizeEi @4160
    _ZNK4aubo5robot13communication9ModbusCfg24SerializeWithCachedSizesEPN6google8protobuf2io17CodedOutputStreamE @4161
    _ZNK4aubo5robot13communication9ModbusCfg31SerializeWithCachedSizesToArrayEPh @4162
    _ZNK4aubo5robot13communication9ModbusCfg3NewEv @4163
    _ZNK4aubo5robot13communication9ModbusCfg8ByteSizeEv @4164
    _ZNK4aubo5robot6common11ToolInertia11GetMetadataEv @4165
    _ZNK4aubo5robot6common11ToolInertia13GetCachedSizeEv @4166
    _ZNK4aubo5robot6common11ToolInertia13IsInitializedEv @4167
    _ZNK4aubo5robot6common11ToolInertia13SetCachedSizeEi @4168
    _ZNK4aubo5robot6common11ToolInertia24SerializeWithCachedSizesEPN6google8protobuf2io17CodedOutputStreamE @4169
    _ZNK4aubo5robot6common11ToolInertia31SerializeWithCachedSizesToArrayEPh @4170
    _ZNK4aubo5robot6common11ToolInertia3NewEv @4171
    _ZNK4aubo5robot6common11ToolInertia8ByteSizeEv @4172
    _ZNK4aubo5robot6common12joint_cart_U11GetMetadataEv @4173
    _ZNK4aubo5robot6common12joint_cart_U13GetCachedSizeEv @4174
    _ZNK4aubo5robot6common12joint_cart_U13IsInitializedEv @4175
    _ZNK4aubo5robot6common12joint_cart_U13SetCachedSizeEi @4176
    _ZNK4aubo5robot6common12joint_cart_U24SerializeWithCachedSizesEPN6google8protobuf2io17CodedOutputStreamE @4177
    _ZNK4aubo5robot6common12joint_cart_U31SerializeWithCachedSizesToArrayEPh @4178
    _ZNK4aubo5robot6common12joint_cart_U3NewEv @4179
    _ZNK4aubo5robot6common12joint_cart_U8ByteSizeEv @4180
    _ZNK4aubo5robot6common14ProtoRoadPoint11GetMetadataEv @4181
    _ZNK4aubo5robot6common14ProtoRoadPoint13GetCachedSizeEv @4182
    _ZNK4aubo5robot6common14ProtoRoadPoint13IsInitializedEv @4183
    _ZNK4aubo5robot6common14ProtoRoadPoint13SetCachedSizeEi @4184
    _ZNK4aubo5robot6common14ProtoRoadPoint24SerializeWithCachedSizesEPN6google8protobuf2io17CodedOutputStreamE @4185
    _ZNK4aubo5robot6common14ProtoRoadPoint31SerializeWithCachedSizesToArrayEPh @4186
    _ZNK4aubo5robot6common14ProtoRoadPoint3NewEv @4187
    _ZNK4aubo5robot6common14ProtoRoadPoint8ByteSizeEv @4188
    _ZNK4aubo5robot6common14RobotTeachMove11GetMetadataEv @4189
    _ZNK4aubo5robot6common14RobotTeachMove13GetCachedSizeEv @4190
    _ZNK4aubo5robot6common14RobotTeachMove13IsInitializedEv @4191
    _ZNK4aubo5robot6common14RobotTeachMove13SetCachedSizeEi @4192
    _ZNK4aubo5robot6common14RobotTeachMove24SerializeWithCachedSizesEPN6google8protobuf2io17CodedOutputStreamE @4193
    _ZNK4aubo5robot6common14RobotTeachMove31SerializeWithCachedSizesToArrayEPh @4194
    _ZNK4aubo5robot6common14RobotTeachMove3NewEv @4195
    _ZNK4aubo5robot6common14RobotTeachMove8ByteSizeEv @4196
    _ZNK4aubo5robot6common14arrivalAhead_t11GetMetadataEv @4197
    _ZNK4aubo5robot6common14arrivalAhead_t13GetCachedSizeEv @4198
    _ZNK4aubo5robot6common14arrivalAhead_t13IsInitializedEv @4199
    _ZNK4aubo5robot6common14arrivalAhead_t13SetCachedSizeEi @4200
    _ZNK4aubo5robot6common14arrivalAhead_t24SerializeWithCachedSizesEPN6google8protobuf2io17CodedOutputStreamE @4201
    _ZNK4aubo5robot6common14arrivalAhead_t31SerializeWithCachedSizesToArrayEPh @4202
    _ZNK4aubo5robot6common14arrivalAhead_t3NewEv @4203
    _ZNK4aubo5robot6common14arrivalAhead_t8ByteSizeEv @4204
    _ZNK4aubo5robot6common14cartesianOri_U11GetMetadataEv @4205
    _ZNK4aubo5robot6common14cartesianOri_U13GetCachedSizeEv @4206
    _ZNK4aubo5robot6common14cartesianOri_U13IsInitializedEv @4207
    _ZNK4aubo5robot6common14cartesianOri_U13SetCachedSizeEi @4208
    _ZNK4aubo5robot6common14cartesianOri_U24SerializeWithCachedSizesEPN6google8protobuf2io17CodedOutputStreamE @4209
    _ZNK4aubo5robot6common14cartesianOri_U31SerializeWithCachedSizesToArrayEPh @4210
    _ZNK4aubo5robot6common14cartesianOri_U3NewEv @4211
    _ZNK4aubo5robot6common14cartesianOri_U8ByteSizeEv @4212
    _ZNK4aubo5robot6common14cartesianPos_U11GetMetadataEv @4213
    _ZNK4aubo5robot6common14cartesianPos_U13GetCachedSizeEv @4214
    _ZNK4aubo5robot6common14cartesianPos_U13IsInitializedEv @4215
    _ZNK4aubo5robot6common14cartesianPos_U13SetCachedSizeEi @4216
    _ZNK4aubo5robot6common14cartesianPos_U24SerializeWithCachedSizesEPN6google8protobuf2io17CodedOutputStreamE @4217
    _ZNK4aubo5robot6common14cartesianPos_U31SerializeWithCachedSizesToArrayEPh @4218
    _ZNK4aubo5robot6common14cartesianPos_U3NewEv @4219
    _ZNK4aubo5robot6common14cartesianPos_U8ByteSizeEv @4220
    _ZNK4aubo5robot6common14relativeMove_t11GetMetadataEv @4221
    _ZNK4aubo5robot6common14relativeMove_t13GetCachedSizeEv @4222
    _ZNK4aubo5robot6common14relativeMove_t13IsInitializedEv @4223
    _ZNK4aubo5robot6common14relativeMove_t13SetCachedSizeEi @4224
    _ZNK4aubo5robot6common14relativeMove_t24SerializeWithCachedSizesEPN6google8protobuf2io17CodedOutputStreamE @4225
    _ZNK4aubo5robot6common14relativeMove_t31SerializeWithCachedSizesToArrayEPh @4226
    _ZNK4aubo5robot6common14relativeMove_t3NewEv @4227
    _ZNK4aubo5robot6common14relativeMove_t8ByteSizeEv @4228
    _ZNK4aubo5robot6common15ProtoJointAngle11GetMetadataEv @4229
    _ZNK4aubo5robot6common15ProtoJointAngle13GetCachedSizeEv @4230
    _ZNK4aubo5robot6common15ProtoJointAngle13IsInitializedEv @4231
    _ZNK4aubo5robot6common15ProtoJointAngle13SetCachedSizeEi @4232
    _ZNK4aubo5robot6common15ProtoJointAngle24SerializeWithCachedSizesEPN6google8protobuf2io17CodedOutputStreamE @4233
    _ZNK4aubo5robot6common15ProtoJointAngle31SerializeWithCachedSizesToArrayEPh @4234
    _ZNK4aubo5robot6common15ProtoJointAngle3NewEv @4235
    _ZNK4aubo5robot6common15ProtoJointAngle8ByteSizeEv @4236
    _ZNK4aubo5robot6common16ProtoJointStatus11GetMetadataEv @4237
    _ZNK4aubo5robot6common16ProtoJointStatus13GetCachedSizeEv @4238
    _ZNK4aubo5robot6common16ProtoJointStatus13IsInitializedEv @4239
    _ZNK4aubo5robot6common16ProtoJointStatus13SetCachedSizeEi @4240
    _ZNK4aubo5robot6common16ProtoJointStatus24SerializeWithCachedSizesEPN6google8protobuf2io17CodedOutputStreamE @4241
    _ZNK4aubo5robot6common16ProtoJointStatus31SerializeWithCachedSizesToArrayEPh @4242
    _ZNK4aubo5robot6common16ProtoJointStatus3NewEv @4243
    _ZNK4aubo5robot6common16ProtoJointStatus8ByteSizeEv @4244
    _ZNK4aubo5robot6common16RobotJointOffset11GetMetadataEv @4245
    _ZNK4aubo5robot6common16RobotJointOffset13GetCachedSizeEv @4246
    _ZNK4aubo5robot6common16RobotJointOffset13IsInitializedEv @4247
    _ZNK4aubo5robot6common16RobotJointOffset13SetCachedSizeEi @4248
    _ZNK4aubo5robot6common16RobotJointOffset24SerializeWithCachedSizesEPN6google8protobuf2io17CodedOutputStreamE @4249
    _ZNK4aubo5robot6common16RobotJointOffset31SerializeWithCachedSizesToArrayEPh @4250
    _ZNK4aubo5robot6common16RobotJointOffset3NewEv @4251
    _ZNK4aubo5robot6common16RobotJointOffset8ByteSizeEv @4252
    _ZNK4aubo5robot6common16RobotMoveProfile11GetMetadataEv @4253
    _ZNK4aubo5robot6common16RobotMoveProfile13GetCachedSizeEv @4254
    _ZNK4aubo5robot6common16RobotMoveProfile13IsInitializedEv @4255
    _ZNK4aubo5robot6common16RobotMoveProfile13SetCachedSizeEi @4256
    _ZNK4aubo5robot6common16RobotMoveProfile24SerializeWithCachedSizesEPN6google8protobuf2io17CodedOutputStreamE @4257
    _ZNK4aubo5robot6common16RobotMoveProfile31SerializeWithCachedSizesToArrayEPh @4258
    _ZNK4aubo5robot6common16RobotMoveProfile3NewEv @4259
    _ZNK4aubo5robot6common16RobotMoveProfile8ByteSizeEv @4260
    _ZNK4aubo5robot6common17ToolDynamicsParam11GetMetadataEv @4261
    _ZNK4aubo5robot6common17ToolDynamicsParam13GetCachedSizeEv @4262
    _ZNK4aubo5robot6common17ToolDynamicsParam13IsInitializedEv @4263
    _ZNK4aubo5robot6common17ToolDynamicsParam13SetCachedSizeEi @4264
    _ZNK4aubo5robot6common17ToolDynamicsParam24SerializeWithCachedSizesEPN6google8protobuf2io17CodedOutputStreamE @4265
    _ZNK4aubo5robot6common17ToolDynamicsParam31SerializeWithCachedSizesToArrayEPh @4266
    _ZNK4aubo5robot6common17ToolDynamicsParam3NewEv @4267
    _ZNK4aubo5robot6common17ToolDynamicsParam8ByteSizeEv @4268
    _ZNK4aubo5robot6common18ProtoToolInEndDesc11GetMetadataEv @4269
    _ZNK4aubo5robot6common18ProtoToolInEndDesc13GetCachedSizeEv @4270
    _ZNK4aubo5robot6common18ProtoToolInEndDesc13IsInitializedEv @4271
    _ZNK4aubo5robot6common18ProtoToolInEndDesc13SetCachedSizeEi @4272
    _ZNK4aubo5robot6common18ProtoToolInEndDesc24SerializeWithCachedSizesEPN6google8protobuf2io17CodedOutputStreamE @4273
    _ZNK4aubo5robot6common18ProtoToolInEndDesc31SerializeWithCachedSizesToArrayEPh @4274
    _ZNK4aubo5robot6common18ProtoToolInEndDesc3NewEv @4275
    _ZNK4aubo5robot6common18ProtoToolInEndDesc8ByteSizeEv @4276
    _ZNK4aubo5robot6common19RobotCommonResponse11GetMetadataEv @4277
    _ZNK4aubo5robot6common19RobotCommonResponse13GetCachedSizeEv @4278
    _ZNK4aubo5robot6common19RobotCommonResponse13IsInitializedEv @4279
    _ZNK4aubo5robot6common19RobotCommonResponse13SetCachedSizeEi @4280
    _ZNK4aubo5robot6common19RobotCommonResponse24SerializeWithCachedSizesEPN6google8protobuf2io17CodedOutputStreamE @4281
    _ZNK4aubo5robot6common19RobotCommonResponse31SerializeWithCachedSizesToArrayEPh @4282
    _ZNK4aubo5robot6common19RobotCommonResponse3NewEv @4283
    _ZNK4aubo5robot6common19RobotCommonResponse8ByteSizeEv @4284
    _ZNK4aubo5robot6common19ToolKinematicsParam11GetMetadataEv @4285
    _ZNK4aubo5robot6common19ToolKinematicsParam13GetCachedSizeEv @4286
    _ZNK4aubo5robot6common19ToolKinematicsParam13IsInitializedEv @4287
    _ZNK4aubo5robot6common19ToolKinematicsParam13SetCachedSizeEi @4288
    _ZNK4aubo5robot6common19ToolKinematicsParam24SerializeWithCachedSizesEPN6google8protobuf2io17CodedOutputStreamE @4289
    _ZNK4aubo5robot6common19ToolKinematicsParam31SerializeWithCachedSizesToArrayEPh @4290
    _ZNK4aubo5robot6common19ToolKinematicsParam3NewEv @4291
    _ZNK4aubo5robot6common19ToolKinematicsParam8ByteSizeEv @4292
    _ZNK4aubo5robot6common21ProtoOrpeSafetyStatus11GetMetadataEv @4293
    _ZNK4aubo5robot6common21ProtoOrpeSafetyStatus13GetCachedSizeEv @4294
    _ZNK4aubo5robot6common21ProtoOrpeSafetyStatus13IsInitializedEv @4295
    _ZNK4aubo5robot6common21ProtoOrpeSafetyStatus13SetCachedSizeEi @4296
    _ZNK4aubo5robot6common21ProtoOrpeSafetyStatus24SerializeWithCachedSizesEPN6google8protobuf2io17CodedOutputStreamE @4297
    _ZNK4aubo5robot6common21ProtoOrpeSafetyStatus31SerializeWithCachedSizesToArrayEPh @4298
    _ZNK4aubo5robot6common21ProtoOrpeSafetyStatus3NewEv @4299
    _ZNK4aubo5robot6common21ProtoOrpeSafetyStatus8ByteSizeEv @4300
    _ZNK4aubo5robot6common22ProtoRobotSafetyConfig11GetMetadataEv @4301
    _ZNK4aubo5robot6common22ProtoRobotSafetyConfig13GetCachedSizeEv @4302
    _ZNK4aubo5robot6common22ProtoRobotSafetyConfig13IsInitializedEv @4303
    _ZNK4aubo5robot6common22ProtoRobotSafetyConfig13SetCachedSizeEi @4304
    _ZNK4aubo5robot6common22ProtoRobotSafetyConfig24SerializeWithCachedSizesEPN6google8protobuf2io17CodedOutputStreamE @4305
    _ZNK4aubo5robot6common22ProtoRobotSafetyConfig31SerializeWithCachedSizesToArrayEPh @4306
    _ZNK4aubo5robot6common22ProtoRobotSafetyConfig3NewEv @4307
    _ZNK4aubo5robot6common22ProtoRobotSafetyConfig8ByteSizeEv @4308
    _ZNK4aubo5robot6common23ProtoJointAngleResponse11GetMetadataEv @4309
    _ZNK4aubo5robot6common23ProtoJointAngleResponse13GetCachedSizeEv @4310
    _ZNK4aubo5robot6common23ProtoJointAngleResponse13IsInitializedEv @4311
    _ZNK4aubo5robot6common23ProtoJointAngleResponse13SetCachedSizeEi @4312
    _ZNK4aubo5robot6common23ProtoJointAngleResponse24SerializeWithCachedSizesEPN6google8protobuf2io17CodedOutputStreamE @4313
    _ZNK4aubo5robot6common23ProtoJointAngleResponse31SerializeWithCachedSizesToArrayEPh @4314
    _ZNK4aubo5robot6common23ProtoJointAngleResponse3NewEv @4315
    _ZNK4aubo5robot6common23ProtoJointAngleResponse8ByteSizeEv @4316
    _ZNK4aubo5robot6common24ProtoRobotMoveFuncResult11GetMetadataEv @4317
    _ZNK4aubo5robot6common24ProtoRobotMoveFuncResult13GetCachedSizeEv @4318
    _ZNK4aubo5robot6common24ProtoRobotMoveFuncResult13IsInitializedEv @4319
    _ZNK4aubo5robot6common24ProtoRobotMoveFuncResult13SetCachedSizeEi @4320
    _ZNK4aubo5robot6common24ProtoRobotMoveFuncResult24SerializeWithCachedSizesEPN6google8protobuf2io17CodedOutputStreamE @4321
    _ZNK4aubo5robot6common24ProtoRobotMoveFuncResult31SerializeWithCachedSizesToArrayEPh @4322
    _ZNK4aubo5robot6common24ProtoRobotMoveFuncResult3NewEv @4323
    _ZNK4aubo5robot6common24ProtoRobotMoveFuncResult8ByteSizeEv @4324
    _ZNK4aubo5robot6common25ProtoResponseRobotDevInfo11GetMetadataEv @4325
    _ZNK4aubo5robot6common25ProtoResponseRobotDevInfo13GetCachedSizeEv @4326
    _ZNK4aubo5robot6common25ProtoResponseRobotDevInfo13IsInitializedEv @4327
    _ZNK4aubo5robot6common25ProtoResponseRobotDevInfo13SetCachedSizeEi @4328
    _ZNK4aubo5robot6common25ProtoResponseRobotDevInfo24SerializeWithCachedSizesEPN6google8protobuf2io17CodedOutputStreamE @4329
    _ZNK4aubo5robot6common25ProtoResponseRobotDevInfo31SerializeWithCachedSizesToArrayEPh @4330
    _ZNK4aubo5robot6common25ProtoResponseRobotDevInfo3NewEv @4331
    _ZNK4aubo5robot6common25ProtoResponseRobotDevInfo8ByteSizeEv @4332
    _ZNK4aubo5robot6common25ProtoResponseRobotDhParam11GetMetadataEv @4333
    _ZNK4aubo5robot6common25ProtoResponseRobotDhParam13GetCachedSizeEv @4334
    _ZNK4aubo5robot6common25ProtoResponseRobotDhParam13IsInitializedEv @4335
    _ZNK4aubo5robot6common25ProtoResponseRobotDhParam13SetCachedSizeEi @4336
    _ZNK4aubo5robot6common25ProtoResponseRobotDhParam24SerializeWithCachedSizesEPN6google8protobuf2io17CodedOutputStreamE @4337
    _ZNK4aubo5robot6common25ProtoResponseRobotDhParam31SerializeWithCachedSizesToArrayEPh @4338
    _ZNK4aubo5robot6common25ProtoResponseRobotDhParam3NewEv @4339
    _ZNK4aubo5robot6common25ProtoResponseRobotDhParam8ByteSizeEv @4340
    _ZNK4aubo5robot6common26ProtoResponseRobotTcpParam11GetMetadataEv @4341
    _ZNK4aubo5robot6common26ProtoResponseRobotTcpParam13GetCachedSizeEv @4342
    _ZNK4aubo5robot6common26ProtoResponseRobotTcpParam13IsInitializedEv @4343
    _ZNK4aubo5robot6common26ProtoResponseRobotTcpParam13SetCachedSizeEi @4344
    _ZNK4aubo5robot6common26ProtoResponseRobotTcpParam24SerializeWithCachedSizesEPN6google8protobuf2io17CodedOutputStreamE @4345
    _ZNK4aubo5robot6common26ProtoResponseRobotTcpParam31SerializeWithCachedSizesToArrayEPh @4346
    _ZNK4aubo5robot6common26ProtoResponseRobotTcpParam3NewEv @4347
    _ZNK4aubo5robot6common26ProtoResponseRobotTcpParam8ByteSizeEv @4348
    _ZNK4aubo5robot6common28ProtoConveyorTrackValuePoint11GetMetadataEv @4349
    _ZNK4aubo5robot6common28ProtoConveyorTrackValuePoint13GetCachedSizeEv @4350
    _ZNK4aubo5robot6common28ProtoConveyorTrackValuePoint13IsInitializedEv @4351
    _ZNK4aubo5robot6common28ProtoConveyorTrackValuePoint13SetCachedSizeEi @4352
    _ZNK4aubo5robot6common28ProtoConveyorTrackValuePoint24SerializeWithCachedSizesEPN6google8protobuf2io17CodedOutputStreamE @4353
    _ZNK4aubo5robot6common28ProtoConveyorTrackValuePoint31SerializeWithCachedSizesToArrayEPh @4354
    _ZNK4aubo5robot6common28ProtoConveyorTrackValuePoint3NewEv @4355
    _ZNK4aubo5robot6common28ProtoConveyorTrackValuePoint8ByteSizeEv @4356
    _ZNK4aubo5robot6common29ProtoResponseOrpeSafetyStatus11GetMetadataEv @4357
    _ZNK4aubo5robot6common29ProtoResponseOrpeSafetyStatus13GetCachedSizeEv @4358
    _ZNK4aubo5robot6common29ProtoResponseOrpeSafetyStatus13IsInitializedEv @4359
    _ZNK4aubo5robot6common29ProtoResponseOrpeSafetyStatus13SetCachedSizeEi @4360
    _ZNK4aubo5robot6common29ProtoResponseOrpeSafetyStatus24SerializeWithCachedSizesEPN6google8protobuf2io17CodedOutputStreamE @4361
    _ZNK4aubo5robot6common29ProtoResponseOrpeSafetyStatus31SerializeWithCachedSizesToArrayEPh @4362
    _ZNK4aubo5robot6common29ProtoResponseOrpeSafetyStatus3NewEv @4363
    _ZNK4aubo5robot6common29ProtoResponseOrpeSafetyStatus8ByteSizeEv @4364
    _ZNK4aubo5robot6common30ProtoResponseRobotSafetyConfig11GetMetadataEv @4365
    _ZNK4aubo5robot6common30ProtoResponseRobotSafetyConfig13GetCachedSizeEv @4366
    _ZNK4aubo5robot6common30ProtoResponseRobotSafetyConfig13IsInitializedEv @4367
    _ZNK4aubo5robot6common30ProtoResponseRobotSafetyConfig13SetCachedSizeEi @4368
    _ZNK4aubo5robot6common30ProtoResponseRobotSafetyConfig24SerializeWithCachedSizesEPN6google8protobuf2io17CodedOutputStreamE @4369
    _ZNK4aubo5robot6common30ProtoResponseRobotSafetyConfig31SerializeWithCachedSizesToArrayEPh @4370
    _ZNK4aubo5robot6common30ProtoResponseRobotSafetyConfig3NewEv @4371
    _ZNK4aubo5robot6common30ProtoResponseRobotSafetyConfig8ByteSizeEv @4372
    _ZNK4aubo5robot6common32ProtoRobotAllJointStatusResponse11GetMetadataEv @4373
    _ZNK4aubo5robot6common32ProtoRobotAllJointStatusResponse13GetCachedSizeEv @4374
    _ZNK4aubo5robot6common32ProtoRobotAllJointStatusResponse13IsInitializedEv @4375
    _ZNK4aubo5robot6common32ProtoRobotAllJointStatusResponse13SetCachedSizeEi @4376
    _ZNK4aubo5robot6common32ProtoRobotAllJointStatusResponse24SerializeWithCachedSizesEPN6google8protobuf2io17CodedOutputStreamE @4377
    _ZNK4aubo5robot6common32ProtoRobotAllJointStatusResponse31SerializeWithCachedSizesToArrayEPh @4378
    _ZNK4aubo5robot6common32ProtoRobotAllJointStatusResponse3NewEv @4379
    _ZNK4aubo5robot6common32ProtoRobotAllJointStatusResponse8ByteSizeEv @4380
    _ZNK4aubo5robot6common34ProtoResponseRobotCollisionCurrent11GetMetadataEv @4381
    _ZNK4aubo5robot6common34ProtoResponseRobotCollisionCurrent13GetCachedSizeEv @4382
    _ZNK4aubo5robot6common34ProtoResponseRobotCollisionCurrent13IsInitializedEv @4383
    _ZNK4aubo5robot6common34ProtoResponseRobotCollisionCurrent13SetCachedSizeEi @4384
    _ZNK4aubo5robot6common34ProtoResponseRobotCollisionCurrent24SerializeWithCachedSizesEPN6google8protobuf2io17CodedOutputStreamE @4385
    _ZNK4aubo5robot6common34ProtoResponseRobotCollisionCurrent31SerializeWithCachedSizesToArrayEPh @4386
    _ZNK4aubo5robot6common34ProtoResponseRobotCollisionCurrent3NewEv @4387
    _ZNK4aubo5robot6common34ProtoResponseRobotCollisionCurrent8ByteSizeEv @4388
    _ZNK4aubo5robot6common34ProtoResponseRobotGravityComponent11GetMetadataEv @4389
    _ZNK4aubo5robot6common34ProtoResponseRobotGravityComponent13GetCachedSizeEv @4390
    _ZNK4aubo5robot6common34ProtoResponseRobotGravityComponent13IsInitializedEv @4391
    _ZNK4aubo5robot6common34ProtoResponseRobotGravityComponent13SetCachedSizeEi @4392
    _ZNK4aubo5robot6common34ProtoResponseRobotGravityComponent24SerializeWithCachedSizesEPN6google8protobuf2io17CodedOutputStreamE @4393
    _ZNK4aubo5robot6common34ProtoResponseRobotGravityComponent31SerializeWithCachedSizesToArrayEPh @4394
    _ZNK4aubo5robot6common34ProtoResponseRobotGravityComponent3NewEv @4395
    _ZNK4aubo5robot6common34ProtoResponseRobotGravityComponent8ByteSizeEv @4396
    _ZNK4aubo5robot6common3Ori11GetMetadataEv @4397
    _ZNK4aubo5robot6common3Ori13GetCachedSizeEv @4398
    _ZNK4aubo5robot6common3Ori13IsInitializedEv @4399
    _ZNK4aubo5robot6common3Ori13SetCachedSizeEi @4400
    _ZNK4aubo5robot6common3Ori24SerializeWithCachedSizesEPN6google8protobuf2io17CodedOutputStreamE @4401
    _ZNK4aubo5robot6common3Ori31SerializeWithCachedSizesToArrayEPh @4402
    _ZNK4aubo5robot6common3Ori3NewEv @4403
    _ZNK4aubo5robot6common3Ori8ByteSizeEv @4404
    _ZNK4aubo5robot6common3Pos11GetMetadataEv @4405
    _ZNK4aubo5robot6common3Pos13GetCachedSizeEv @4406
    _ZNK4aubo5robot6common3Pos13IsInitializedEv @4407
    _ZNK4aubo5robot6common3Pos13SetCachedSizeEi @4408
    _ZNK4aubo5robot6common3Pos24SerializeWithCachedSizesEPN6google8protobuf2io17CodedOutputStreamE @4409
    _ZNK4aubo5robot6common3Pos31SerializeWithCachedSizesToArrayEPh @4410
    _ZNK4aubo5robot6common3Pos3NewEv @4411
    _ZNK4aubo5robot6common3Pos8ByteSizeEv @4412
    _ZNK4aubo5robot6common7DhParam11GetMetadataEv @4413
    _ZNK4aubo5robot6common7DhParam13GetCachedSizeEv @4414
    _ZNK4aubo5robot6common7DhParam13IsInitializedEv @4415
    _ZNK4aubo5robot6common7DhParam13SetCachedSizeEi @4416
    _ZNK4aubo5robot6common7DhParam24SerializeWithCachedSizesEPN6google8protobuf2io17CodedOutputStreamE @4417
    _ZNK4aubo5robot6common7DhParam31SerializeWithCachedSizesToArrayEPh @4418
    _ZNK4aubo5robot6common7DhParam3NewEv @4419
    _ZNK4aubo5robot6common7DhParam8ByteSizeEv @4420
    _ZNK4aubo5robot6common9RobotMove11GetMetadataEv @4421
    _ZNK4aubo5robot6common9RobotMove13GetCachedSizeEv @4422
    _ZNK4aubo5robot6common9RobotMove13IsInitializedEv @4423
    _ZNK4aubo5robot6common9RobotMove13SetCachedSizeEi @4424
    _ZNK4aubo5robot6common9RobotMove24SerializeWithCachedSizesEPN6google8protobuf2io17CodedOutputStreamE @4425
    _ZNK4aubo5robot6common9RobotMove31SerializeWithCachedSizesToArrayEPh @4426
    _ZNK4aubo5robot6common9RobotMove3NewEv @4427
    _ZNK4aubo5robot6common9RobotMove8ByteSizeEv @4428
    _ZNK4aubo5robot6common9ToolParam11GetMetadataEv @4429
    _ZNK4aubo5robot6common9ToolParam13GetCachedSizeEv @4430
    _ZNK4aubo5robot6common9ToolParam13IsInitializedEv @4431
    _ZNK4aubo5robot6common9ToolParam13SetCachedSizeEi @4432
    _ZNK4aubo5robot6common9ToolParam24SerializeWithCachedSizesEPN6google8protobuf2io17CodedOutputStreamE @4433
    _ZNK4aubo5robot6common9ToolParam31SerializeWithCachedSizesToArrayEPh @4434
    _ZNK4aubo5robot6common9ToolParam3NewEv @4435
    _ZNK4aubo5robot6common9ToolParam8ByteSizeEv @4436
    _ZNK6google8protobuf10Descriptor11DebugStringEiPSs @4437
    _ZNK6google8protobuf10Descriptor11DebugStringEv @4438
    _ZNK6google8protobuf10Descriptor15FindFieldByNameERKSs @4439
    _ZNK6google8protobuf10Descriptor15FindOneofByNameERKSs @4440
    _ZNK6google8protobuf10Descriptor15GetLocationPathEPSt6vectorIiSaIiEE @4441
    _ZNK6google8protobuf10Descriptor17FindFieldByNumberEi @4442
    _ZNK6google8protobuf10Descriptor17GetSourceLocationEPNS0_14SourceLocationE @4443
    _ZNK6google8protobuf10Descriptor18FindEnumTypeByNameERKSs @4444
    _ZNK6google8protobuf10Descriptor19FindEnumValueByNameERKSs @4445
    _ZNK6google8protobuf10Descriptor19FindExtensionByNameERKSs @4446
    _ZNK6google8protobuf10Descriptor20FindNestedTypeByNameERKSs @4447
    _ZNK6google8protobuf10Descriptor24FindFieldByCamelcaseNameERKSs @4448
    _ZNK6google8protobuf10Descriptor24FindFieldByLowercaseNameERKSs @4449
    _ZNK6google8protobuf10Descriptor28FindExtensionByCamelcaseNameERKSs @4450
    _ZNK6google8protobuf10Descriptor28FindExtensionByLowercaseNameERKSs @4451
    _ZNK6google8protobuf10Descriptor34FindExtensionRangeContainingNumberEi @4452
    _ZNK6google8protobuf10Descriptor6CopyToEPNS0_15DescriptorProtoE @4453
    _ZNK6google8protobuf10Reflection10ClearOneofEPNS0_7MessageEPKNS0_15OneofDescriptorE @4454
    _ZNK6google8protobuf10Reflection16GetRepeatedFieldIbEERKNS0_13RepeatedFieldIT_EERKNS0_7MessageEPKNS0_15FieldDescriptorE @4455
    _ZNK6google8protobuf10Reflection16GetRepeatedFieldIdEERKNS0_13RepeatedFieldIT_EERKNS0_7MessageEPKNS0_15FieldDescriptorE @4456
    _ZNK6google8protobuf10Reflection16GetRepeatedFieldIfEERKNS0_13RepeatedFieldIT_EERKNS0_7MessageEPKNS0_15FieldDescriptorE @4457
    _ZNK6google8protobuf10Reflection16GetRepeatedFieldIiEERKNS0_13RepeatedFieldIT_EERKNS0_7MessageEPKNS0_15FieldDescriptorE @4458
    _ZNK6google8protobuf10Reflection16GetRepeatedFieldIjEERKNS0_13RepeatedFieldIT_EERKNS0_7MessageEPKNS0_15FieldDescriptorE @4459
    _ZNK6google8protobuf10Reflection16GetRepeatedFieldIxEERKNS0_13RepeatedFieldIT_EERKNS0_7MessageEPKNS0_15FieldDescriptorE @4460
    _ZNK6google8protobuf10Reflection16GetRepeatedFieldIyEERKNS0_13RepeatedFieldIT_EERKNS0_7MessageEPKNS0_15FieldDescriptorE @4461
    _ZNK6google8protobuf10Reflection20MutableRepeatedFieldIbEEPNS0_13RepeatedFieldIT_EEPNS0_7MessageEPKNS0_15FieldDescriptorE @4462
    _ZNK6google8protobuf10Reflection20MutableRepeatedFieldIdEEPNS0_13RepeatedFieldIT_EEPNS0_7MessageEPKNS0_15FieldDescriptorE @4463
    _ZNK6google8protobuf10Reflection20MutableRepeatedFieldIfEEPNS0_13RepeatedFieldIT_EEPNS0_7MessageEPKNS0_15FieldDescriptorE @4464
    _ZNK6google8protobuf10Reflection20MutableRepeatedFieldIiEEPNS0_13RepeatedFieldIT_EEPNS0_7MessageEPKNS0_15FieldDescriptorE @4465
    _ZNK6google8protobuf10Reflection20MutableRepeatedFieldIjEEPNS0_13RepeatedFieldIT_EEPNS0_7MessageEPKNS0_15FieldDescriptorE @4466
    _ZNK6google8protobuf10Reflection20MutableRepeatedFieldIxEEPNS0_13RepeatedFieldIT_EEPNS0_7MessageEPKNS0_15FieldDescriptorE @4467
    _ZNK6google8protobuf10Reflection20MutableRepeatedFieldIyEEPNS0_13RepeatedFieldIT_EEPNS0_7MessageEPKNS0_15FieldDescriptorE @4468
    _ZNK6google8protobuf10Reflection23GetOneofFieldDescriptorERKNS0_7MessageEPKNS0_15OneofDescriptorE @4469
    _ZNK6google8protobuf10Reflection24MutableRawRepeatedStringEPNS0_7MessageEPKNS0_15FieldDescriptorEb @4470
    _ZNK6google8protobuf10Reflection8HasOneofERKNS0_7MessageEPKNS0_15OneofDescriptorE @4471
    _ZNK6google8protobuf10TextFormat13ParseInfoTree11GetLocationEPKNS0_15FieldDescriptorEi @4472
    _ZNK6google8protobuf10TextFormat13ParseInfoTree16GetTreeForNestedEPKNS0_15FieldDescriptorEi @4473
    _ZNK6google8protobuf10TextFormat17FieldValuePrinter10PrintBytesERKSs @4474
    _ZNK6google8protobuf10TextFormat17FieldValuePrinter10PrintFloatEf @4475
    _ZNK6google8protobuf10TextFormat17FieldValuePrinter10PrintInt32Ei @4476
    _ZNK6google8protobuf10TextFormat17FieldValuePrinter10PrintInt64Ex @4477
    _ZNK6google8protobuf10TextFormat17FieldValuePrinter11PrintDoubleEd @4478
    _ZNK6google8protobuf10TextFormat17FieldValuePrinter11PrintStringERKSs @4479
    _ZNK6google8protobuf10TextFormat17FieldValuePrinter11PrintUInt32Ej @4480
    _ZNK6google8protobuf10TextFormat17FieldValuePrinter11PrintUInt64Ey @4481
    _ZNK6google8protobuf10TextFormat17FieldValuePrinter14PrintFieldNameERKNS0_7MessageEPKNS0_10ReflectionEPKNS0_15FieldDescriptorE @4482
    _ZNK6google8protobuf10TextFormat17FieldValuePrinter15PrintMessageEndERKNS0_7MessageEiib @4483
    _ZNK6google8protobuf10TextFormat17FieldValuePrinter17PrintMessageStartERKNS0_7MessageEiib @4484
    _ZNK6google8protobuf10TextFormat17FieldValuePrinter9PrintBoolEb @4485
    _ZNK6google8protobuf10TextFormat17FieldValuePrinter9PrintEnumEiRKSs @4486
    _ZNK6google8protobuf10TextFormat7Printer10PrintFieldERKNS0_7MessageEPKNS0_10ReflectionEPKNS0_15FieldDescriptorERNS2_13TextGeneratorE @4487
    _ZNK6google8protobuf10TextFormat7Printer13PrintToStringERKNS0_7MessageEPSs @4488
    _ZNK6google8protobuf10TextFormat7Printer14PrintFieldNameERKNS0_7MessageEPKNS0_10ReflectionEPKNS0_15FieldDescriptorERNS2_13TextGeneratorE @4489
    _ZNK6google8protobuf10TextFormat7Printer15PrintFieldValueERKNS0_7MessageEPKNS0_10ReflectionEPKNS0_15FieldDescriptorEiRNS2_13TextGeneratorE @4490
    _ZNK6google8protobuf10TextFormat7Printer18PrintUnknownFieldsERKNS0_15UnknownFieldSetEPNS0_2io20ZeroCopyOutputStreamE @4491
    _ZNK6google8protobuf10TextFormat7Printer18PrintUnknownFieldsERKNS0_15UnknownFieldSetERNS2_13TextGeneratorE @4492
    _ZNK6google8protobuf10TextFormat7Printer23PrintFieldValueToStringERKNS0_7MessageEPKNS0_15FieldDescriptorEiPSs @4493
    _ZNK6google8protobuf10TextFormat7Printer23PrintShortRepeatedFieldERKNS0_7MessageEPKNS0_10ReflectionEPKNS0_15FieldDescriptorERNS2_13TextGeneratorE @4494
    _ZNK6google8protobuf10TextFormat7Printer26PrintUnknownFieldsToStringERKNS0_15UnknownFieldSetEPSs @4495
    _ZNK6google8protobuf10TextFormat7Printer5PrintERKNS0_7MessageEPNS0_2io20ZeroCopyOutputStreamE @4496
    _ZNK6google8protobuf10TextFormat7Printer5PrintERKNS0_7MessageERNS2_13TextGeneratorE @4497
    _ZNK6google8protobuf11EnumOptions11GetMetadataEv @4498
    _ZNK6google8protobuf11EnumOptions13GetCachedSizeEv @4499
    _ZNK6google8protobuf11EnumOptions13IsInitializedEv @4500
    _ZNK6google8protobuf11EnumOptions13SetCachedSizeEi @4501
    _ZNK6google8protobuf11EnumOptions24SerializeWithCachedSizesEPNS0_2io17CodedOutputStreamE @4502
    _ZNK6google8protobuf11EnumOptions31SerializeWithCachedSizesToArrayEPh @4503
    _ZNK6google8protobuf11EnumOptions3NewEv @4504
    _ZNK6google8protobuf11EnumOptions8ByteSizeEv @4505
    _ZNK6google8protobuf11FileOptions11GetMetadataEv @4506
    _ZNK6google8protobuf11FileOptions13GetCachedSizeEv @4507
    _ZNK6google8protobuf11FileOptions13IsInitializedEv @4508
    _ZNK6google8protobuf11FileOptions13SetCachedSizeEi @4509
    _ZNK6google8protobuf11FileOptions24SerializeWithCachedSizesEPNS0_2io17CodedOutputStreamE @4510
    _ZNK6google8protobuf11FileOptions31SerializeWithCachedSizesToArrayEPh @4511
    _ZNK6google8protobuf11FileOptions3NewEv @4512
    _ZNK6google8protobuf11FileOptions8ByteSizeEv @4513
    _ZNK6google8protobuf11MessageLite14AppendToStringEPSs @4514
    _ZNK6google8protobuf11MessageLite16SerializeToArrayEPvi @4515
    _ZNK6google8protobuf11MessageLite17SerializeAsStringEv @4516
    _ZNK6google8protobuf11MessageLite17SerializeToStringEPSs @4517
    _ZNK6google8protobuf11MessageLite21AppendPartialToStringEPSs @4518
    _ZNK6google8protobuf11MessageLite22SerializeToCodedStreamEPNS0_2io17CodedOutputStreamE @4519
    _ZNK6google8protobuf11MessageLite23SerializePartialToArrayEPvi @4520
    _ZNK6google8protobuf11MessageLite24SerializePartialAsStringEv @4521
    _ZNK6google8protobuf11MessageLite24SerializePartialToStringEPSs @4522
    _ZNK6google8protobuf11MessageLite25InitializationErrorStringEv @4523
    _ZNK6google8protobuf11MessageLite25SerializeToZeroCopyStreamEPNS0_2io20ZeroCopyOutputStreamE @4524
    _ZNK6google8protobuf11MessageLite29SerializePartialToCodedStreamEPNS0_2io17CodedOutputStreamE @4525
    _ZNK6google8protobuf11MessageLite31SerializeWithCachedSizesToArrayEPh @4526
    _ZNK6google8protobuf11MessageLite32SerializePartialToZeroCopyStreamEPNS0_2io20ZeroCopyOutputStreamE @4527
    _ZNK6google8protobuf12FieldOptions11GetMetadataEv @4528
    _ZNK6google8protobuf12FieldOptions13GetCachedSizeEv @4529
    _ZNK6google8protobuf12FieldOptions13IsInitializedEv @4530
    _ZNK6google8protobuf12FieldOptions13SetCachedSizeEi @4531
    _ZNK6google8protobuf12FieldOptions24SerializeWithCachedSizesEPNS0_2io17CodedOutputStreamE @4532
    _ZNK6google8protobuf12FieldOptions31SerializeWithCachedSizesToArrayEPh @4533
    _ZNK6google8protobuf12FieldOptions3NewEv @4534
    _ZNK6google8protobuf12FieldOptions8ByteSizeEv @4535
    _ZNK6google8protobuf12UnknownField29SerializeLengthDelimitedNoTagEPNS0_2io17CodedOutputStreamE @4536
    _ZNK6google8protobuf12UnknownField36SerializeLengthDelimitedNoTagToArrayEPh @4537
    _ZNK6google8protobuf13MethodOptions11GetMetadataEv @4538
    _ZNK6google8protobuf13MethodOptions13GetCachedSizeEv @4539
    _ZNK6google8protobuf13MethodOptions13IsInitializedEv @4540
    _ZNK6google8protobuf13MethodOptions13SetCachedSizeEi @4541
    _ZNK6google8protobuf13MethodOptions24SerializeWithCachedSizesEPNS0_2io17CodedOutputStreamE @4542
    _ZNK6google8protobuf13MethodOptions31SerializeWithCachedSizesToArrayEPh @4543
    _ZNK6google8protobuf13MethodOptions3NewEv @4544
    _ZNK6google8protobuf13MethodOptions8ByteSizeEv @4545
    _ZNK6google8protobuf13RepeatedFieldIiE3GetEi @4546
    _ZNK6google8protobuf13RepeatedFieldIjE3GetEi @4547
    _ZNK6google8protobuf13RepeatedFieldIxE3GetEi @4548
    _ZNK6google8protobuf13RepeatedFieldIyE3GetEi @4549
    _ZNK6google8protobuf14DescriptorPool14FindFileByNameERKSs @4550
    _ZNK6google8protobuf14DescriptorPool15FindFieldByNameERKSs @4551
    _ZNK6google8protobuf14DescriptorPool15FindOneofByNameERKSs @4552
    _ZNK6google8protobuf14DescriptorPool16FindMethodByNameERKSs @4553
    _ZNK6google8protobuf14DescriptorPool17FindAllExtensionsEPKNS0_10DescriptorEPSt6vectorIPKNS0_15FieldDescriptorESaIS8_EE @4554
    _ZNK6google8protobuf14DescriptorPool17FindServiceByNameERKSs @4555
    _ZNK6google8protobuf14DescriptorPool18FindEnumTypeByNameERKSs @4556
    _ZNK6google8protobuf14DescriptorPool19FindEnumValueByNameERKSs @4557
    _ZNK6google8protobuf14DescriptorPool19FindExtensionByNameERKSs @4558
    _ZNK6google8protobuf14DescriptorPool20InternalIsFileLoadedERKSs @4559
    _ZNK6google8protobuf14DescriptorPool21BuildFileFromDatabaseERKNS0_19FileDescriptorProtoE @4560
    _ZNK6google8protobuf14DescriptorPool21FindExtensionByNumberEPKNS0_10DescriptorEi @4561
    _ZNK6google8protobuf14DescriptorPool21FindMessageTypeByNameERKSs @4562
    _ZNK6google8protobuf14DescriptorPool22IsSubSymbolOfBuiltTypeERKSs @4563
    _ZNK6google8protobuf14DescriptorPool24FindFileContainingSymbolERKSs @4564
    _ZNK6google8protobuf14DescriptorPool29TryFindFileInFallbackDatabaseERKSs @4565
    _ZNK6google8protobuf14DescriptorPool31TryFindSymbolInFallbackDatabaseERKSs @4566
    _ZNK6google8protobuf14DescriptorPool34TryFindExtensionInFallbackDatabaseEPKNS0_10DescriptorEi @4567
    _ZNK6google8protobuf14DynamicMessage11GetMetadataEv @4568
    _ZNK6google8protobuf14DynamicMessage13GetCachedSizeEv @4569
    _ZNK6google8protobuf14DynamicMessage13SetCachedSizeEi @4570
    _ZNK6google8protobuf14DynamicMessage3NewEv @4571
    _ZNK6google8protobuf14EnumDescriptor11DebugStringEiPSs @4572
    _ZNK6google8protobuf14EnumDescriptor11DebugStringEv @4573
    _ZNK6google8protobuf14EnumDescriptor15FindValueByNameERKSs @4574
    _ZNK6google8protobuf14EnumDescriptor15GetLocationPathEPSt6vectorIiSaIiEE @4575
    _ZNK6google8protobuf14EnumDescriptor17FindValueByNumberEi @4576
    _ZNK6google8protobuf14EnumDescriptor17GetSourceLocationEPNS0_14SourceLocationE @4577
    _ZNK6google8protobuf14EnumDescriptor6CopyToEPNS0_19EnumDescriptorProtoE @4578
    _ZNK6google8protobuf14FatalException4whatEv @4579
    _ZNK6google8protobuf14FileDescriptor11DebugStringEv @4580
    _ZNK6google8protobuf14FileDescriptor17FindServiceByNameERKSs @4581
    _ZNK6google8protobuf14FileDescriptor17GetSourceLocationERKSt6vectorIiSaIiEEPNS0_14SourceLocationE @4582
    _ZNK6google8protobuf14FileDescriptor18FindEnumTypeByNameERKSs @4583
    _ZNK6google8protobuf14FileDescriptor19FindEnumValueByNameERKSs @4584
    _ZNK6google8protobuf14FileDescriptor19FindExtensionByNameERKSs @4585
    _ZNK6google8protobuf14FileDescriptor20CopySourceCodeInfoToEPNS0_19FileDescriptorProtoE @4586
    _ZNK6google8protobuf14FileDescriptor21FindMessageTypeByNameERKSs @4587
    _ZNK6google8protobuf14FileDescriptor28FindExtensionByCamelcaseNameERKSs @4588
    _ZNK6google8protobuf14FileDescriptor28FindExtensionByLowercaseNameERKSs @4589
    _ZNK6google8protobuf14FileDescriptor6CopyToEPNS0_19FileDescriptorProtoE @4590
    _ZNK6google8protobuf14MessageOptions11GetMetadataEv @4591
    _ZNK6google8protobuf14MessageOptions13GetCachedSizeEv @4592
    _ZNK6google8protobuf14MessageOptions13IsInitializedEv @4593
    _ZNK6google8protobuf14MessageOptions13SetCachedSizeEi @4594
    _ZNK6google8protobuf14MessageOptions24SerializeWithCachedSizesEPNS0_2io17CodedOutputStreamE @4595
    _ZNK6google8protobuf14MessageOptions31SerializeWithCachedSizesToArrayEPh @4596
    _ZNK6google8protobuf14MessageOptions3NewEv @4597
    _ZNK6google8protobuf14MessageOptions8ByteSizeEv @4598
    _ZNK6google8protobuf14ServiceOptions11GetMetadataEv @4599
    _ZNK6google8protobuf14ServiceOptions13GetCachedSizeEv @4600
    _ZNK6google8protobuf14ServiceOptions13IsInitializedEv @4601
    _ZNK6google8protobuf14ServiceOptions13SetCachedSizeEi @4602
    _ZNK6google8protobuf14ServiceOptions24SerializeWithCachedSizesEPNS0_2io17CodedOutputStreamE @4603
    _ZNK6google8protobuf14ServiceOptions31SerializeWithCachedSizesToArrayEPh @4604
    _ZNK6google8protobuf14ServiceOptions3NewEv @4605
    _ZNK6google8protobuf14ServiceOptions8ByteSizeEv @4606
    _ZNK6google8protobuf14SourceCodeInfo11GetMetadataEv @4607
    _ZNK6google8protobuf14SourceCodeInfo13GetCachedSizeEv @4608
    _ZNK6google8protobuf14SourceCodeInfo13IsInitializedEv @4609
    _ZNK6google8protobuf14SourceCodeInfo13SetCachedSizeEi @4610
    _ZNK6google8protobuf14SourceCodeInfo24SerializeWithCachedSizesEPNS0_2io17CodedOutputStreamE @4611
    _ZNK6google8protobuf14SourceCodeInfo31SerializeWithCachedSizesToArrayEPh @4612
    _ZNK6google8protobuf14SourceCodeInfo3NewEv @4613
    _ZNK6google8protobuf14SourceCodeInfo8ByteSizeEv @4614
    _ZNK6google8protobuf15DescriptorProto11GetMetadataEv @4615
    _ZNK6google8protobuf15DescriptorProto13GetCachedSizeEv @4616
    _ZNK6google8protobuf15DescriptorProto13IsInitializedEv @4617
    _ZNK6google8protobuf15DescriptorProto13SetCachedSizeEi @4618
    _ZNK6google8protobuf15DescriptorProto24SerializeWithCachedSizesEPNS0_2io17CodedOutputStreamE @4619
    _ZNK6google8protobuf15DescriptorProto31SerializeWithCachedSizesToArrayEPh @4620
    _ZNK6google8protobuf15DescriptorProto3NewEv @4621
    _ZNK6google8protobuf15DescriptorProto8ByteSizeEv @4622
    _ZNK6google8protobuf15FieldDescriptor11DebugStringEiNS1_14PrintLabelFlagEPSs @4623
    _ZNK6google8protobuf15FieldDescriptor11DebugStringEv @4624
    _ZNK6google8protobuf15FieldDescriptor15GetLocationPathEPSt6vectorIiSaIiEE @4625
    _ZNK6google8protobuf15FieldDescriptor17GetSourceLocationEPNS0_14SourceLocationE @4626
    _ZNK6google8protobuf15FieldDescriptor20DefaultValueAsStringEb @4627
    _ZNK6google8protobuf15FieldDescriptor5indexEv @4628
    _ZNK6google8protobuf15FieldDescriptor6CopyToEPNS0_20FieldDescriptorProtoE @4629
    _ZNK6google8protobuf15FieldDescriptor9is_packedEv @4630
    _ZNK6google8protobuf15OneofDescriptor11DebugStringEiPSs @4631
    _ZNK6google8protobuf15OneofDescriptor11DebugStringEv @4632
    _ZNK6google8protobuf15OneofDescriptor15GetLocationPathEPSt6vectorIiSaIiEE @4633
    _ZNK6google8protobuf15OneofDescriptor17GetSourceLocationEPNS0_14SourceLocationE @4634
    _ZNK6google8protobuf15OneofDescriptor6CopyToEPNS0_20OneofDescriptorProtoE @4635
    _ZNK6google8protobuf15UnknownFieldSet22SpaceUsedExcludingSelfEv @4636
    _ZNK6google8protobuf15UnknownFieldSet9SpaceUsedEv @4637
    _ZNK6google8protobuf16EnumValueOptions11GetMetadataEv @4638
    _ZNK6google8protobuf16EnumValueOptions13GetCachedSizeEv @4639
    _ZNK6google8protobuf16EnumValueOptions13IsInitializedEv @4640
    _ZNK6google8protobuf16EnumValueOptions13SetCachedSizeEi @4641
    _ZNK6google8protobuf16EnumValueOptions24SerializeWithCachedSizesEPNS0_2io17CodedOutputStreamE @4642
    _ZNK6google8protobuf16EnumValueOptions31SerializeWithCachedSizesToArrayEPh @4643
    _ZNK6google8protobuf16EnumValueOptions3NewEv @4644
    _ZNK6google8protobuf16EnumValueOptions8ByteSizeEv @4645
    _ZNK6google8protobuf16MethodDescriptor11DebugStringEiPSs @4646
    _ZNK6google8protobuf16MethodDescriptor11DebugStringEv @4647
    _ZNK6google8protobuf16MethodDescriptor15GetLocationPathEPSt6vectorIiSaIiEE @4648
    _ZNK6google8protobuf16MethodDescriptor17GetSourceLocationEPNS0_14SourceLocationE @4649
    _ZNK6google8protobuf16MethodDescriptor6CopyToEPNS0_21MethodDescriptorProtoE @4650
    _ZNK6google8protobuf17DescriptorBuilder17OptionInterpreter21AggregateOptionFinder13FindExtensionEPNS0_7MessageERKSs @4651
    _ZNK6google8protobuf17FileDescriptorSet11GetMetadataEv @4652
    _ZNK6google8protobuf17FileDescriptorSet13GetCachedSizeEv @4653
    _ZNK6google8protobuf17FileDescriptorSet13IsInitializedEv @4654
    _ZNK6google8protobuf17FileDescriptorSet13SetCachedSizeEi @4655
    _ZNK6google8protobuf17FileDescriptorSet24SerializeWithCachedSizesEPNS0_2io17CodedOutputStreamE @4656
    _ZNK6google8protobuf17FileDescriptorSet31SerializeWithCachedSizesToArrayEPh @4657
    _ZNK6google8protobuf17FileDescriptorSet3NewEv @4658
    _ZNK6google8protobuf17FileDescriptorSet8ByteSizeEv @4659
    _ZNK6google8protobuf17ServiceDescriptor11DebugStringEPSs @4660
    _ZNK6google8protobuf17ServiceDescriptor11DebugStringEv @4661
    _ZNK6google8protobuf17ServiceDescriptor15GetLocationPathEPSt6vectorIiSaIiEE @4662
    _ZNK6google8protobuf17ServiceDescriptor16FindMethodByNameERKSs @4663
    _ZNK6google8protobuf17ServiceDescriptor17GetSourceLocationEPNS0_14SourceLocationE @4664
    _ZNK6google8protobuf17ServiceDescriptor6CopyToEPNS0_22ServiceDescriptorProtoE @4665
    _ZNK6google8protobuf19EnumDescriptorProto11GetMetadataEv @4666
    _ZNK6google8protobuf19EnumDescriptorProto13GetCachedSizeEv @4667
    _ZNK6google8protobuf19EnumDescriptorProto13IsInitializedEv @4668
    _ZNK6google8protobuf19EnumDescriptorProto13SetCachedSizeEi @4669
    _ZNK6google8protobuf19EnumDescriptorProto24SerializeWithCachedSizesEPNS0_2io17CodedOutputStreamE @4670
    _ZNK6google8protobuf19EnumDescriptorProto31SerializeWithCachedSizesToArrayEPh @4671
    _ZNK6google8protobuf19EnumDescriptorProto3NewEv @4672
    _ZNK6google8protobuf19EnumDescriptorProto8ByteSizeEv @4673
    _ZNK6google8protobuf19EnumValueDescriptor11DebugStringEiPSs @4674
    _ZNK6google8protobuf19EnumValueDescriptor11DebugStringEv @4675
    _ZNK6google8protobuf19EnumValueDescriptor15GetLocationPathEPSt6vectorIiSaIiEE @4676
    _ZNK6google8protobuf19EnumValueDescriptor17GetSourceLocationEPNS0_14SourceLocationE @4677
    _ZNK6google8protobuf19EnumValueDescriptor6CopyToEPNS0_24EnumValueDescriptorProtoE @4678
    _ZNK6google8protobuf19FileDescriptorProto11GetMetadataEv @4679
    _ZNK6google8protobuf19FileDescriptorProto13GetCachedSizeEv @4680
    _ZNK6google8protobuf19FileDescriptorProto13IsInitializedEv @4681
    _ZNK6google8protobuf19FileDescriptorProto13SetCachedSizeEi @4682
    _ZNK6google8protobuf19FileDescriptorProto24SerializeWithCachedSizesEPNS0_2io17CodedOutputStreamE @4683
    _ZNK6google8protobuf19FileDescriptorProto31SerializeWithCachedSizesToArrayEPh @4684
    _ZNK6google8protobuf19FileDescriptorProto3NewEv @4685
    _ZNK6google8protobuf19FileDescriptorProto8ByteSizeEv @4686
    _ZNK6google8protobuf19UninterpretedOption11GetMetadataEv @4687
    _ZNK6google8protobuf19UninterpretedOption13GetCachedSizeEv @4688
    _ZNK6google8protobuf19UninterpretedOption13IsInitializedEv @4689
    _ZNK6google8protobuf19UninterpretedOption13SetCachedSizeEi @4690
    _ZNK6google8protobuf19UninterpretedOption24SerializeWithCachedSizesEPNS0_2io17CodedOutputStreamE @4691
    _ZNK6google8protobuf19UninterpretedOption31SerializeWithCachedSizesToArrayEPh @4692
    _ZNK6google8protobuf19UninterpretedOption3NewEv @4693
    _ZNK6google8protobuf19UninterpretedOption8ByteSizeEv @4694
    _ZNK6google8protobuf20FieldDescriptorProto11GetMetadataEv @4695
    _ZNK6google8protobuf20FieldDescriptorProto13GetCachedSizeEv @4696
    _ZNK6google8protobuf20FieldDescriptorProto13IsInitializedEv @4697
    _ZNK6google8protobuf20FieldDescriptorProto13SetCachedSizeEi @4698
    _ZNK6google8protobuf20FieldDescriptorProto24SerializeWithCachedSizesEPNS0_2io17CodedOutputStreamE @4699
    _ZNK6google8protobuf20FieldDescriptorProto31SerializeWithCachedSizesToArrayEPh @4700
    _ZNK6google8protobuf20FieldDescriptorProto3NewEv @4701
    _ZNK6google8protobuf20FieldDescriptorProto8ByteSizeEv @4702
    _ZNK6google8protobuf20FileDescriptorTables17GetSourceLocationERKSt6vectorIiSaIiEEPKNS0_14SourceCodeInfoE @4703
    _ZNK6google8protobuf20OneofDescriptorProto11GetMetadataEv @4704
    _ZNK6google8protobuf20OneofDescriptorProto13GetCachedSizeEv @4705
    _ZNK6google8protobuf20OneofDescriptorProto13IsInitializedEv @4706
    _ZNK6google8protobuf20OneofDescriptorProto13SetCachedSizeEi @4707
    _ZNK6google8protobuf20OneofDescriptorProto24SerializeWithCachedSizesEPNS0_2io17CodedOutputStreamE @4708
    _ZNK6google8protobuf20OneofDescriptorProto31SerializeWithCachedSizesToArrayEPh @4709
    _ZNK6google8protobuf20OneofDescriptorProto3NewEv @4710
    _ZNK6google8protobuf20OneofDescriptorProto8ByteSizeEv @4711
    _ZNK6google8protobuf21MethodDescriptorProto11GetMetadataEv @4712
    _ZNK6google8protobuf21MethodDescriptorProto13GetCachedSizeEv @4713
    _ZNK6google8protobuf21MethodDescriptorProto13IsInitializedEv @4714
    _ZNK6google8protobuf21MethodDescriptorProto13SetCachedSizeEi @4715
    _ZNK6google8protobuf21MethodDescriptorProto24SerializeWithCachedSizesEPNS0_2io17CodedOutputStreamE @4716
    _ZNK6google8protobuf21MethodDescriptorProto31SerializeWithCachedSizesToArrayEPh @4717
    _ZNK6google8protobuf21MethodDescriptorProto3NewEv @4718
    _ZNK6google8protobuf21MethodDescriptorProto8ByteSizeEv @4719
    _ZNK6google8protobuf22ServiceDescriptorProto11GetMetadataEv @4720
    _ZNK6google8protobuf22ServiceDescriptorProto13GetCachedSizeEv @4721
    _ZNK6google8protobuf22ServiceDescriptorProto13IsInitializedEv @4722
    _ZNK6google8protobuf22ServiceDescriptorProto13SetCachedSizeEi @4723
    _ZNK6google8protobuf22ServiceDescriptorProto24SerializeWithCachedSizesEPNS0_2io17CodedOutputStreamE @4724
    _ZNK6google8protobuf22ServiceDescriptorProto31SerializeWithCachedSizesToArrayEPh @4725
    _ZNK6google8protobuf22ServiceDescriptorProto3NewEv @4726
    _ZNK6google8protobuf22ServiceDescriptorProto8ByteSizeEv @4727
    _ZNK6google8protobuf23SourceCodeInfo_Location11GetMetadataEv @4728
    _ZNK6google8protobuf23SourceCodeInfo_Location13GetCachedSizeEv @4729
    _ZNK6google8protobuf23SourceCodeInfo_Location13IsInitializedEv @4730
    _ZNK6google8protobuf23SourceCodeInfo_Location13SetCachedSizeEi @4731
    _ZNK6google8protobuf23SourceCodeInfo_Location24SerializeWithCachedSizesEPNS0_2io17CodedOutputStreamE @4732
    _ZNK6google8protobuf23SourceCodeInfo_Location31SerializeWithCachedSizesToArrayEPh @4733
    _ZNK6google8protobuf23SourceCodeInfo_Location3NewEv @4734
    _ZNK6google8protobuf23SourceCodeInfo_Location8ByteSizeEv @4735
    _ZNK6google8protobuf24EnumValueDescriptorProto11GetMetadataEv @4736
    _ZNK6google8protobuf24EnumValueDescriptorProto13GetCachedSizeEv @4737
    _ZNK6google8protobuf24EnumValueDescriptorProto13IsInitializedEv @4738
    _ZNK6google8protobuf24EnumValueDescriptorProto13SetCachedSizeEi @4739
    _ZNK6google8protobuf24EnumValueDescriptorProto24SerializeWithCachedSizesEPNS0_2io17CodedOutputStreamE @4740
    _ZNK6google8protobuf24EnumValueDescriptorProto31SerializeWithCachedSizesToArrayEPh @4741
    _ZNK6google8protobuf24EnumValueDescriptorProto3NewEv @4742
    _ZNK6google8protobuf24EnumValueDescriptorProto8ByteSizeEv @4743
    _ZNK6google8protobuf28UninterpretedOption_NamePart11GetMetadataEv @4744
    _ZNK6google8protobuf28UninterpretedOption_NamePart13GetCachedSizeEv @4745
    _ZNK6google8protobuf28UninterpretedOption_NamePart13IsInitializedEv @4746
    _ZNK6google8protobuf28UninterpretedOption_NamePart13SetCachedSizeEi @4747
    _ZNK6google8protobuf28UninterpretedOption_NamePart24SerializeWithCachedSizesEPNS0_2io17CodedOutputStreamE @4748
    _ZNK6google8protobuf28UninterpretedOption_NamePart31SerializeWithCachedSizesToArrayEPh @4749
    _ZNK6google8protobuf28UninterpretedOption_NamePart3NewEv @4750
    _ZNK6google8protobuf28UninterpretedOption_NamePart8ByteSizeEv @4751
    _ZNK6google8protobuf2io15FileInputStream9ByteCountEv @4752
    _ZNK6google8protobuf2io16ArrayInputStream9ByteCountEv @4753
    _ZNK6google8protobuf2io16CodedInputStream15BytesUntilLimitEv @4754
    _ZNK6google8protobuf2io16CodedInputStream25BytesUntilTotalBytesLimitEv @4755
    _ZNK6google8protobuf2io16FileOutputStream9ByteCountEv @4756
    _ZNK6google8protobuf2io17ArrayOutputStream9ByteCountEv @4757
    _ZNK6google8protobuf2io18IstreamInputStream9ByteCountEv @4758
    _ZNK6google8protobuf2io18StringOutputStream9ByteCountEv @4759
    _ZNK6google8protobuf2io19LimitingInputStream9ByteCountEv @4760
    _ZNK6google8protobuf2io19OstreamOutputStream9ByteCountEv @4761
    _ZNK6google8protobuf2io20ZeroCopyOutputStream14AllowsAliasingEv @4762
    _ZNK6google8protobuf2io24ConcatenatingInputStream9ByteCountEv @4763
    _ZNK6google8protobuf2io25CopyingInputStreamAdaptor9ByteCountEv @4764
    _ZNK6google8protobuf2io26CopyingOutputStreamAdaptor9ByteCountEv @4765
    _ZNK6google8protobuf30DescriptorProto_ExtensionRange11GetMetadataEv @4766
    _ZNK6google8protobuf30DescriptorProto_ExtensionRange13GetCachedSizeEv @4767
    _ZNK6google8protobuf30DescriptorProto_ExtensionRange13IsInitializedEv @4768
    _ZNK6google8protobuf30DescriptorProto_ExtensionRange13SetCachedSizeEi @4769
    _ZNK6google8protobuf30DescriptorProto_ExtensionRange24SerializeWithCachedSizesEPNS0_2io17CodedOutputStreamE @4770
    _ZNK6google8protobuf30DescriptorProto_ExtensionRange31SerializeWithCachedSizesToArrayEPh @4771
    _ZNK6google8protobuf30DescriptorProto_ExtensionRange3NewEv @4772
    _ZNK6google8protobuf30DescriptorProto_ExtensionRange8ByteSizeEv @4773
    _ZNK6google8protobuf7Message11DebugStringEv @4774
    _ZNK6google8protobuf7Message11GetTypeNameEv @4775
    _ZNK6google8protobuf7Message13GetReflectionEv @4776
    _ZNK6google8protobuf7Message13IsInitializedEv @4777
    _ZNK6google8protobuf7Message13SetCachedSizeEi @4778
    _ZNK6google8protobuf7Message15Utf8DebugStringEv @4779
    _ZNK6google8protobuf7Message16CheckInitializedEv @4780
    _ZNK6google8protobuf7Message16PrintDebugStringEv @4781
    _ZNK6google8protobuf7Message16ShortDebugStringEv @4782
    _ZNK6google8protobuf7Message18SerializeToOstreamEPSo @4783
    _ZNK6google8protobuf7Message24FindInitializationErrorsEPSt6vectorISsSaISsEE @4784
    _ZNK6google8protobuf7Message24SerializeWithCachedSizesEPNS0_2io17CodedOutputStreamE @4785
    _ZNK6google8protobuf7Message25InitializationErrorStringEv @4786
    _ZNK6google8protobuf7Message25SerializePartialToOstreamEPSo @4787
    _ZNK6google8protobuf7Message25SerializeToFileDescriptorEi @4788
    _ZNK6google8protobuf7Message32SerializePartialToFileDescriptorEi @4789
    _ZNK6google8protobuf7Message8ByteSizeEv @4790
    _ZNK6google8protobuf7Message9SpaceUsedEv @4791
    _ZNK6google8protobuf8internal12ExtensionSet10GetMessageEiPKNS0_10DescriptorEPNS0_14MessageFactoryE @4792
    _ZNK6google8protobuf8internal12ExtensionSet10GetMessageEiRKNS0_11MessageLiteE @4793
    _ZNK6google8protobuf8internal12ExtensionSet12AppendToListEPKNS0_10DescriptorEPKNS0_14DescriptorPoolEPSt6vectorIPKNS0_15FieldDescriptorESaISC_EE @4794
    _ZNK6google8protobuf8internal12ExtensionSet13ExtensionSizeEi @4795
    _ZNK6google8protobuf8internal12ExtensionSet13ExtensionTypeEi @4796
    _ZNK6google8protobuf8internal12ExtensionSet13IsInitializedEv @4797
    _ZNK6google8protobuf8internal12ExtensionSet13NumExtensionsEv @4798
    _ZNK6google8protobuf8internal12ExtensionSet15GetRepeatedBoolEii @4799
    _ZNK6google8protobuf8internal12ExtensionSet15GetRepeatedEnumEii @4800
    _ZNK6google8protobuf8internal12ExtensionSet16GetRepeatedFloatEii @4801
    _ZNK6google8protobuf8internal12ExtensionSet16GetRepeatedInt32Eii @4802
    _ZNK6google8protobuf8internal12ExtensionSet16GetRepeatedInt64Eii @4803
    _ZNK6google8protobuf8internal12ExtensionSet17GetRepeatedDoubleEii @4804
    _ZNK6google8protobuf8internal12ExtensionSet17GetRepeatedStringEii @4805
    _ZNK6google8protobuf8internal12ExtensionSet17GetRepeatedUInt32Eii @4806
    _ZNK6google8protobuf8internal12ExtensionSet17GetRepeatedUInt64Eii @4807
    _ZNK6google8protobuf8internal12ExtensionSet18GetRepeatedMessageEii @4808
    _ZNK6google8protobuf8internal12ExtensionSet18MessageSetByteSizeEv @4809
    _ZNK6google8protobuf8internal12ExtensionSet19GetRawRepeatedFieldEiPKv @4810
    _ZNK6google8protobuf8internal12ExtensionSet22SpaceUsedExcludingSelfEv @4811
    _ZNK6google8protobuf8internal12ExtensionSet24SerializeWithCachedSizesEiiPNS0_2io17CodedOutputStreamE @4812
    _ZNK6google8protobuf8internal12ExtensionSet31SerializeWithCachedSizesToArrayEiiPh @4813
    _ZNK6google8protobuf8internal12ExtensionSet34SerializeMessageSetWithCachedSizesEPNS0_2io17CodedOutputStreamE @4814
    _ZNK6google8protobuf8internal12ExtensionSet3HasEi @4815
    _ZNK6google8protobuf8internal12ExtensionSet41SerializeMessageSetWithCachedSizesToArrayEPh @4816
    _ZNK6google8protobuf8internal12ExtensionSet7GetBoolEib @4817
    _ZNK6google8protobuf8internal12ExtensionSet7GetEnumEii @4818
    _ZNK6google8protobuf8internal12ExtensionSet8ByteSizeEv @4819
    _ZNK6google8protobuf8internal12ExtensionSet8GetFloatEif @4820
    _ZNK6google8protobuf8internal12ExtensionSet8GetInt32Eii @4821
    _ZNK6google8protobuf8internal12ExtensionSet8GetInt64Eix @4822
    _ZNK6google8protobuf8internal12ExtensionSet9Extension22MessageSetItemByteSizeEi @4823
    _ZNK6google8protobuf8internal12ExtensionSet9Extension22SpaceUsedExcludingSelfEv @4824
    _ZNK6google8protobuf8internal12ExtensionSet9Extension29SerializeFieldWithCachedSizesEiPNS0_2io17CodedOutputStreamE @4825
    _ZNK6google8protobuf8internal12ExtensionSet9Extension36SerializeFieldWithCachedSizesToArrayEiPh @4826
    _ZNK6google8protobuf8internal12ExtensionSet9Extension38SerializeMessageSetItemWithCachedSizesEiPNS0_2io17CodedOutputStreamE @4827
    _ZNK6google8protobuf8internal12ExtensionSet9Extension45SerializeMessageSetItemWithCachedSizesToArrayEiPh @4828
    _ZNK6google8protobuf8internal12ExtensionSet9Extension7GetSizeEv @4829
    _ZNK6google8protobuf8internal12ExtensionSet9Extension8ByteSizeEi @4830
    _ZNK6google8protobuf8internal12ExtensionSet9GetDoubleEid @4831
    _ZNK6google8protobuf8internal12ExtensionSet9GetStringEiRKSs @4832
    _ZNK6google8protobuf8internal12ExtensionSet9GetUInt32Eij @4833
    _ZNK6google8protobuf8internal12ExtensionSet9GetUInt64Eiy @4834
    _ZNK6google8protobuf8internal20RepeatedPtrFieldBase3GetINS0_16RepeatedPtrFieldINS0_11MessageLiteEE11TypeHandlerEEERKNT_4TypeEi @4835
    _ZNK6google8protobuf8internal20RepeatedPtrFieldBase3GetINS0_16RepeatedPtrFieldINS0_15DescriptorProtoEE11TypeHandlerEEERKNT_4TypeEi @4836
    _ZNK6google8protobuf8internal20RepeatedPtrFieldBase3GetINS0_16RepeatedPtrFieldINS0_19EnumDescriptorProtoEE11TypeHandlerEEERKNT_4TypeEi @4837
    _ZNK6google8protobuf8internal20RepeatedPtrFieldBase3GetINS0_16RepeatedPtrFieldINS0_19UninterpretedOptionEE11TypeHandlerEEERKNT_4TypeEi @4838
    _ZNK6google8protobuf8internal20RepeatedPtrFieldBase3GetINS0_16RepeatedPtrFieldINS0_20FieldDescriptorProtoEE11TypeHandlerEEERKNT_4TypeEi @4839
    _ZNK6google8protobuf8internal20RepeatedPtrFieldBase3GetINS0_16RepeatedPtrFieldISsE11TypeHandlerEEERKNT_4TypeEi @4840
    _ZNK6google8protobuf8internal26GeneratedMessageReflection10AddMessageEPNS0_7MessageEPKNS0_15FieldDescriptorEPNS0_14MessageFactoryE @4841
    _ZNK6google8protobuf8internal26GeneratedMessageReflection10ClearFieldEPNS0_7MessageEPKNS0_15FieldDescriptorE @4842
    _ZNK6google8protobuf8internal26GeneratedMessageReflection10ClearOneofEPNS0_7MessageEPKNS0_15OneofDescriptorE @4843
    _ZNK6google8protobuf8internal26GeneratedMessageReflection10DefaultRawIPKSsEERKT_PKNS0_15FieldDescriptorE @4844
    _ZNK6google8protobuf8internal26GeneratedMessageReflection10GetMessageERKNS0_7MessageEPKNS0_15FieldDescriptorEPNS0_14MessageFactoryE @4845
    _ZNK6google8protobuf8internal26GeneratedMessageReflection10ListFieldsERKNS0_7MessageEPSt6vectorIPKNS0_15FieldDescriptorESaIS9_EE @4846
    _ZNK6google8protobuf8internal26GeneratedMessageReflection10RemoveLastEPNS0_7MessageEPKNS0_15FieldDescriptorE @4847
    _ZNK6google8protobuf8internal26GeneratedMessageReflection10SwapFieldsEPNS0_7MessageES4_RKSt6vectorIPKNS0_15FieldDescriptorESaIS8_EE @4848
    _ZNK6google8protobuf8internal26GeneratedMessageReflection11ReleaseLastEPNS0_7MessageEPKNS0_15FieldDescriptorE @4849
    _ZNK6google8protobuf8internal26GeneratedMessageReflection12SwapElementsEPNS0_7MessageEPKNS0_15FieldDescriptorEii @4850
    _ZNK6google8protobuf8internal26GeneratedMessageReflection14MutableMessageEPNS0_7MessageEPKNS0_15FieldDescriptorEPNS0_14MessageFactoryE @4851
    _ZNK6google8protobuf8internal26GeneratedMessageReflection14ReleaseMessageEPNS0_7MessageEPKNS0_15FieldDescriptorEPNS0_14MessageFactoryE @4852
    _ZNK6google8protobuf8internal26GeneratedMessageReflection14SwapOneofFieldEPNS0_7MessageES4_PKNS0_15OneofDescriptorE @4853
    _ZNK6google8protobuf8internal26GeneratedMessageReflection15GetRepeatedBoolERKNS0_7MessageEPKNS0_15FieldDescriptorEi @4854
    _ZNK6google8protobuf8internal26GeneratedMessageReflection15GetRepeatedEnumERKNS0_7MessageEPKNS0_15FieldDescriptorEi @4855
    _ZNK6google8protobuf8internal26GeneratedMessageReflection15SetRepeatedBoolEPNS0_7MessageEPKNS0_15FieldDescriptorEib @4856
    _ZNK6google8protobuf8internal26GeneratedMessageReflection15SetRepeatedEnumEPNS0_7MessageEPKNS0_15FieldDescriptorEiPKNS0_19EnumValueDescriptorE @4857
    _ZNK6google8protobuf8internal26GeneratedMessageReflection16GetRepeatedFloatERKNS0_7MessageEPKNS0_15FieldDescriptorEi @4858
    _ZNK6google8protobuf8internal26GeneratedMessageReflection16GetRepeatedInt32ERKNS0_7MessageEPKNS0_15FieldDescriptorEi @4859
    _ZNK6google8protobuf8internal26GeneratedMessageReflection16GetRepeatedInt64ERKNS0_7MessageEPKNS0_15FieldDescriptorEi @4860
    _ZNK6google8protobuf8internal26GeneratedMessageReflection16GetUnknownFieldsERKNS0_7MessageE @4861
    _ZNK6google8protobuf8internal26GeneratedMessageReflection16SetRepeatedFloatEPNS0_7MessageEPKNS0_15FieldDescriptorEif @4862
    _ZNK6google8protobuf8internal26GeneratedMessageReflection16SetRepeatedInt32EPNS0_7MessageEPKNS0_15FieldDescriptorEii @4863
    _ZNK6google8protobuf8internal26GeneratedMessageReflection16SetRepeatedInt64EPNS0_7MessageEPKNS0_15FieldDescriptorEix @4864
    _ZNK6google8protobuf8internal26GeneratedMessageReflection17GetRepeatedDoubleERKNS0_7MessageEPKNS0_15FieldDescriptorEi @4865
    _ZNK6google8protobuf8internal26GeneratedMessageReflection17GetRepeatedStringERKNS0_7MessageEPKNS0_15FieldDescriptorEi @4866
    _ZNK6google8protobuf8internal26GeneratedMessageReflection17GetRepeatedUInt32ERKNS0_7MessageEPKNS0_15FieldDescriptorEi @4867
    _ZNK6google8protobuf8internal26GeneratedMessageReflection17GetRepeatedUInt64ERKNS0_7MessageEPKNS0_15FieldDescriptorEi @4868
    _ZNK6google8protobuf8internal26GeneratedMessageReflection17SetRepeatedDoubleEPNS0_7MessageEPKNS0_15FieldDescriptorEid @4869
    _ZNK6google8protobuf8internal26GeneratedMessageReflection17SetRepeatedStringEPNS0_7MessageEPKNS0_15FieldDescriptorEiRKSs @4870
    _ZNK6google8protobuf8internal26GeneratedMessageReflection17SetRepeatedUInt32EPNS0_7MessageEPKNS0_15FieldDescriptorEij @4871
    _ZNK6google8protobuf8internal26GeneratedMessageReflection17SetRepeatedUInt64EPNS0_7MessageEPKNS0_15FieldDescriptorEiy @4872
    _ZNK6google8protobuf8internal26GeneratedMessageReflection18GetRepeatedMessageERKNS0_7MessageEPKNS0_15FieldDescriptorEi @4873
    _ZNK6google8protobuf8internal26GeneratedMessageReflection18GetStringReferenceERKNS0_7MessageEPKNS0_15FieldDescriptorEPSs @4874
    _ZNK6google8protobuf8internal26GeneratedMessageReflection19SetAllocatedMessageEPNS0_7MessageES4_PKNS0_15FieldDescriptorE @4875
    _ZNK6google8protobuf8internal26GeneratedMessageReflection20MutableUnknownFieldsEPNS0_7MessageE @4876
    _ZNK6google8protobuf8internal26GeneratedMessageReflection22MutableRepeatedMessageEPNS0_7MessageEPKNS0_15FieldDescriptorEi @4877
    _ZNK6google8protobuf8internal26GeneratedMessageReflection23GetOneofFieldDescriptorERKNS0_7MessageEPKNS0_15OneofDescriptorE @4878
    _ZNK6google8protobuf8internal26GeneratedMessageReflection23MutableRawRepeatedFieldEPNS0_7MessageEPKNS0_15FieldDescriptorENS5_7CppTypeEiPKNS0_10DescriptorE @4879
    _ZNK6google8protobuf8internal26GeneratedMessageReflection24FindKnownExtensionByNameERKSs @4880
    _ZNK6google8protobuf8internal26GeneratedMessageReflection26FindKnownExtensionByNumberEi @4881
    _ZNK6google8protobuf8internal26GeneratedMessageReflection26GetRepeatedStringReferenceERKNS0_7MessageEPKNS0_15FieldDescriptorEiPSs @4882
    _ZNK6google8protobuf8internal26GeneratedMessageReflection4SwapEPNS0_7MessageES4_ @4883
    _ZNK6google8protobuf8internal26GeneratedMessageReflection6GetRawINS0_13RepeatedFieldIbEEEERKT_RKNS0_7MessageEPKNS0_15FieldDescriptorE @4884
    _ZNK6google8protobuf8internal26GeneratedMessageReflection6GetRawINS0_13RepeatedFieldIdEEEERKT_RKNS0_7MessageEPKNS0_15FieldDescriptorE @4885
    _ZNK6google8protobuf8internal26GeneratedMessageReflection6GetRawINS0_13RepeatedFieldIfEEEERKT_RKNS0_7MessageEPKNS0_15FieldDescriptorE @4886
    _ZNK6google8protobuf8internal26GeneratedMessageReflection6GetRawINS0_13RepeatedFieldIiEEEERKT_RKNS0_7MessageEPKNS0_15FieldDescriptorE @4887
    _ZNK6google8protobuf8internal26GeneratedMessageReflection6GetRawINS0_13RepeatedFieldIjEEEERKT_RKNS0_7MessageEPKNS0_15FieldDescriptorE @4888
    _ZNK6google8protobuf8internal26GeneratedMessageReflection6GetRawINS0_13RepeatedFieldIxEEEERKT_RKNS0_7MessageEPKNS0_15FieldDescriptorE @4889
    _ZNK6google8protobuf8internal26GeneratedMessageReflection6GetRawINS0_13RepeatedFieldIyEEEERKT_RKNS0_7MessageEPKNS0_15FieldDescriptorE @4890
    _ZNK6google8protobuf8internal26GeneratedMessageReflection6GetRawINS0_16RepeatedPtrFieldISsEEEERKT_RKNS0_7MessageEPKNS0_15FieldDescriptorE @4891
    _ZNK6google8protobuf8internal26GeneratedMessageReflection6GetRawINS1_20RepeatedPtrFieldBaseEEERKT_RKNS0_7MessageEPKNS0_15FieldDescriptorE @4892
    _ZNK6google8protobuf8internal26GeneratedMessageReflection6GetRawIbEERKT_RKNS0_7MessageEPKNS0_15FieldDescriptorE @4893
    _ZNK6google8protobuf8internal26GeneratedMessageReflection6GetRawIdEERKT_RKNS0_7MessageEPKNS0_15FieldDescriptorE @4894
    _ZNK6google8protobuf8internal26GeneratedMessageReflection6GetRawIfEERKT_RKNS0_7MessageEPKNS0_15FieldDescriptorE @4895
    _ZNK6google8protobuf8internal26GeneratedMessageReflection6GetRawIiEERKT_RKNS0_7MessageEPKNS0_15FieldDescriptorE @4896
    _ZNK6google8protobuf8internal26GeneratedMessageReflection6GetRawIjEERKT_RKNS0_7MessageEPKNS0_15FieldDescriptorE @4897
    _ZNK6google8protobuf8internal26GeneratedMessageReflection6GetRawIxEERKT_RKNS0_7MessageEPKNS0_15FieldDescriptorE @4898
    _ZNK6google8protobuf8internal26GeneratedMessageReflection6GetRawIyEERKT_RKNS0_7MessageEPKNS0_15FieldDescriptorE @4899
    _ZNK6google8protobuf8internal26GeneratedMessageReflection6SetBitEPNS0_7MessageEPKNS0_15FieldDescriptorE @4900
    _ZNK6google8protobuf8internal26GeneratedMessageReflection7AddBoolEPNS0_7MessageEPKNS0_15FieldDescriptorEb @4901
    _ZNK6google8protobuf8internal26GeneratedMessageReflection7AddEnumEPNS0_7MessageEPKNS0_15FieldDescriptorEPKNS0_19EnumValueDescriptorE @4902
    _ZNK6google8protobuf8internal26GeneratedMessageReflection7GetBoolERKNS0_7MessageEPKNS0_15FieldDescriptorE @4903
    _ZNK6google8protobuf8internal26GeneratedMessageReflection7GetEnumERKNS0_7MessageEPKNS0_15FieldDescriptorE @4904
    _ZNK6google8protobuf8internal26GeneratedMessageReflection7SetBoolEPNS0_7MessageEPKNS0_15FieldDescriptorEb @4905
    _ZNK6google8protobuf8internal26GeneratedMessageReflection7SetEnumEPNS0_7MessageEPKNS0_15FieldDescriptorEPKNS0_19EnumValueDescriptorE @4906
    _ZNK6google8protobuf8internal26GeneratedMessageReflection8AddFloatEPNS0_7MessageEPKNS0_15FieldDescriptorEf @4907
    _ZNK6google8protobuf8internal26GeneratedMessageReflection8AddInt32EPNS0_7MessageEPKNS0_15FieldDescriptorEi @4908
    _ZNK6google8protobuf8internal26GeneratedMessageReflection8AddInt64EPNS0_7MessageEPKNS0_15FieldDescriptorEx @4909
    _ZNK6google8protobuf8internal26GeneratedMessageReflection8GetFloatERKNS0_7MessageEPKNS0_15FieldDescriptorE @4910
    _ZNK6google8protobuf8internal26GeneratedMessageReflection8GetInt32ERKNS0_7MessageEPKNS0_15FieldDescriptorE @4911
    _ZNK6google8protobuf8internal26GeneratedMessageReflection8GetInt64ERKNS0_7MessageEPKNS0_15FieldDescriptorE @4912
    _ZNK6google8protobuf8internal26GeneratedMessageReflection8HasFieldERKNS0_7MessageEPKNS0_15FieldDescriptorE @4913
    _ZNK6google8protobuf8internal26GeneratedMessageReflection8HasOneofERKNS0_7MessageEPKNS0_15OneofDescriptorE @4914
    _ZNK6google8protobuf8internal26GeneratedMessageReflection8SetFieldIbEEvPNS0_7MessageEPKNS0_15FieldDescriptorERKT_ @4915
    _ZNK6google8protobuf8internal26GeneratedMessageReflection8SetFieldIdEEvPNS0_7MessageEPKNS0_15FieldDescriptorERKT_ @4916
    _ZNK6google8protobuf8internal26GeneratedMessageReflection8SetFieldIfEEvPNS0_7MessageEPKNS0_15FieldDescriptorERKT_ @4917
    _ZNK6google8protobuf8internal26GeneratedMessageReflection8SetFieldIiEEvPNS0_7MessageEPKNS0_15FieldDescriptorERKT_ @4918
    _ZNK6google8protobuf8internal26GeneratedMessageReflection8SetFieldIjEEvPNS0_7MessageEPKNS0_15FieldDescriptorERKT_ @4919
    _ZNK6google8protobuf8internal26GeneratedMessageReflection8SetFieldIxEEvPNS0_7MessageEPKNS0_15FieldDescriptorERKT_ @4920
    _ZNK6google8protobuf8internal26GeneratedMessageReflection8SetFieldIyEEvPNS0_7MessageEPKNS0_15FieldDescriptorERKT_ @4921
    _ZNK6google8protobuf8internal26GeneratedMessageReflection8SetFloatEPNS0_7MessageEPKNS0_15FieldDescriptorEf @4922
    _ZNK6google8protobuf8internal26GeneratedMessageReflection8SetInt32EPNS0_7MessageEPKNS0_15FieldDescriptorEi @4923
    _ZNK6google8protobuf8internal26GeneratedMessageReflection8SetInt64EPNS0_7MessageEPKNS0_15FieldDescriptorEx @4924
    _ZNK6google8protobuf8internal26GeneratedMessageReflection9AddDoubleEPNS0_7MessageEPKNS0_15FieldDescriptorEd @4925
    _ZNK6google8protobuf8internal26GeneratedMessageReflection9AddStringEPNS0_7MessageEPKNS0_15FieldDescriptorERKSs @4926
    _ZNK6google8protobuf8internal26GeneratedMessageReflection9AddUInt32EPNS0_7MessageEPKNS0_15FieldDescriptorEj @4927
    _ZNK6google8protobuf8internal26GeneratedMessageReflection9AddUInt64EPNS0_7MessageEPKNS0_15FieldDescriptorEy @4928
    _ZNK6google8protobuf8internal26GeneratedMessageReflection9FieldSizeERKNS0_7MessageEPKNS0_15FieldDescriptorE @4929
    _ZNK6google8protobuf8internal26GeneratedMessageReflection9GetDoubleERKNS0_7MessageEPKNS0_15FieldDescriptorE @4930
    _ZNK6google8protobuf8internal26GeneratedMessageReflection9GetStringERKNS0_7MessageEPKNS0_15FieldDescriptorE @4931
    _ZNK6google8protobuf8internal26GeneratedMessageReflection9GetUInt32ERKNS0_7MessageEPKNS0_15FieldDescriptorE @4932
    _ZNK6google8protobuf8internal26GeneratedMessageReflection9GetUInt64ERKNS0_7MessageEPKNS0_15FieldDescriptorE @4933
    _ZNK6google8protobuf8internal26GeneratedMessageReflection9SetDoubleEPNS0_7MessageEPKNS0_15FieldDescriptorEd @4934
    _ZNK6google8protobuf8internal26GeneratedMessageReflection9SetStringEPNS0_7MessageEPKNS0_15FieldDescriptorERKSs @4935
    _ZNK6google8protobuf8internal26GeneratedMessageReflection9SetUInt32EPNS0_7MessageEPKNS0_15FieldDescriptorEj @4936
    _ZNK6google8protobuf8internal26GeneratedMessageReflection9SetUInt64EPNS0_7MessageEPKNS0_15FieldDescriptorEy @4937
    _ZNK6google8protobuf8internal26GeneratedMessageReflection9SpaceUsedERKNS0_7MessageE @4938
    _ZNK6google8protobuf8internal26GeneratedMessageReflection9SwapFieldEPNS0_7MessageES4_PKNS0_15FieldDescriptorE @4939
    _ZNK9__gnu_cxx13new_allocatorI10wayPoint_SE8max_sizeEv @4940
    _ZNK9__gnu_cxx17__normal_iteratorIP10wayPoint_SSt6vectorIS1_SaIS1_EEE4baseEv @4941
    _ZNK9__gnu_cxx17__normal_iteratorIP10wayPoint_SSt6vectorIS1_SaIS1_EEEdeEv @4942
    _ZNK9rapidjson12GenericValueINS_4UTF8IcEENS_19MemoryPoolAllocatorINS_12CrtAllocatorEEEE6AcceptINS_6WriterINS_19GenericStringBufferIS2_S4_EES2_S2_S4_Lj0EEEEEbRT_ @4943
    _ZNKSt10_HashtableIPKN6google8protobuf10DescriptorESt4pairIKS4_PKNS1_7MessageEESaISA_ENSt8__detail10_Select1stESt8equal_toIS4_ENS1_4hashIS4_EENSC_18_Mod_range_hashingENSC_20_Default_ranged_hashENSC_20_Prime_rehash_policyENSC_17_Hashtable_traitsILb1ELb0ELb1EEEE19_M_find_before_nodeEjRS6_j @4944
    _ZNKSt10_HashtableIPKcSt4pairIKS1_PFvRKSsEESaIS8_ENSt8__detail10_Select1stEN6google8protobuf5streqENSD_4hashIS1_EENSA_18_Mod_range_hashingENSA_20_Default_ranged_hashENSA_20_Prime_rehash_policyENSA_17_Hashtable_traitsILb1ELb0ELb1EEEE19_M_find_before_nodeEjRS3_j @4945
    _ZNKSt10_HashtableIPKcSt4pairIKS1_PKN6google8protobuf14FileDescriptorEESaIS9_ENSt8__detail10_Select1stENS5_5streqENS5_4hashIS1_EENSB_18_Mod_range_hashingENSB_20_Default_ranged_hashENSB_20_Prime_rehash_policyENSB_17_Hashtable_traitsILb1ELb0ELb1EEEE19_M_find_before_nodeEjRS3_j @4946
    _ZNKSt10_HashtableISsSsSaISsENSt8__detail9_IdentityESt8equal_toISsEN6google8protobuf4hashISsEENS1_18_Mod_range_hashingENS1_20_Default_ranged_hashENS1_20_Prime_rehash_policyENS1_17_Hashtable_traitsILb1ELb1ELb1EEEE5countERKSs @4947
    _ZNKSt10_HashtableISsSt4pairIKSsPKN6google8protobuf23SourceCodeInfo_LocationEESaIS7_ENSt8__detail10_Select1stESt8equal_toISsENS3_4hashISsEENS9_18_Mod_range_hashingENS9_20_Default_ranged_hashENS9_20_Prime_rehash_policyENS9_17_Hashtable_traitsILb1ELb0ELb1EEEE19_M_find_before_nodeEjRS1_j @4948
    _ZNKSt10_HashtableISt4pairIPKN6google8protobuf11MessageLiteEiES0_IKS6_NS2_8internal13ExtensionInfoEESaISA_ENSt8__detail10_Select1stESt8equal_toIS6_ENS2_4hashIS6_EENSC_18_Mod_range_hashingENSC_20_Default_ranged_hashENSC_20_Prime_rehash_policyENSC_17_Hashtable_traitsILb1ELb0ELb1EEEE19_M_find_before_nodeEjRS7_j @4949
    _ZNKSt12_Vector_baseI10wayPoint_SSaIS0_EE19_M_get_Tp_allocatorEv @4950
    _ZNKSt5ctypeIcE8do_widenEc @4951
    _ZNKSt6vectorI10wayPoint_SSaIS0_EE12_M_check_lenEjPKc @4952
    _ZNKSt6vectorI10wayPoint_SSaIS0_EE4sizeEv @4953
    _ZNKSt6vectorI10wayPoint_SSaIS0_EE8max_sizeEv @4954
    _ZNKSt8_Rb_treeIPKN6google8protobuf10DescriptorES4_St9_IdentityIS4_ESt4lessIS4_ESaIS4_EE4findERKS4_ @4955
    _ZNKSt8_Rb_treeIPKN6google8protobuf15FieldDescriptorESt4pairIKS4_PKNS1_10TextFormat17FieldValuePrinterEESt10_Select1stISB_ESt4lessIS4_ESaISB_EE4findERS6_ @4956
    _ZNKSt8_Rb_treeISsSsSt9_IdentityISsESt4lessISsESaISsEE4findERKSs @4957
    _ZNKSt8_Rb_treeISsSt4pairIKSsiESt10_Select1stIS2_ESt4lessISsESaIS2_EE4findERS1_ @4958
    _ZNKSt8_Rb_treeIiSt4pairIKiN6google8protobuf8internal12ExtensionSet9ExtensionEESt10_Select1stIS7_ESt4lessIiESaIS7_EE4findERS1_ @4959
    _ZNKSt8_Rb_treeIiiSt9_IdentityIiESt4lessIiESaIiEE4findERKi @4960
    _ZNSt10_HashtableIPKN6google8protobuf10DescriptorES4_SaIS4_ENSt8__detail9_IdentityESt8equal_toIS4_ENS1_4hashIS4_EENS6_18_Mod_range_hashingENS6_20_Default_ranged_hashENS6_20_Prime_rehash_policyENS6_17_Hashtable_traitsILb1ELb1ELb1EEEE21_M_insert_unique_nodeEjjPNS6_10_Hash_nodeIS4_Lb1EEE @4961
    _ZNSt10_HashtableIPKN6google8protobuf10DescriptorES4_SaIS4_ENSt8__detail9_IdentityESt8equal_toIS4_ENS1_4hashIS4_EENS6_18_Mod_range_hashingENS6_20_Default_ranged_hashENS6_20_Prime_rehash_policyENS6_17_Hashtable_traitsILb1ELb1ELb1EEEED1Ev @4962
    _ZNSt10_HashtableIPKN6google8protobuf10DescriptorESt4pairIKS4_PKNS1_14DynamicMessage8TypeInfoEESaISB_ENSt8__detail10_Select1stESt8equal_toIS4_ENS1_4hashIS4_EENSD_18_Mod_range_hashingENSD_20_Default_ranged_hashENSD_20_Prime_rehash_policyENSD_17_Hashtable_traitsILb1ELb0ELb1EEEE21_M_insert_unique_nodeEjjPNSD_10_Hash_nodeISB_Lb1EEE @4963
    _ZNSt10_HashtableIPKN6google8protobuf10DescriptorESt4pairIKS4_PKNS1_7MessageEESaISA_ENSt8__detail10_Select1stESt8equal_toIS4_ENS1_4hashIS4_EENSC_18_Mod_range_hashingENSC_20_Default_ranged_hashENSC_20_Prime_rehash_policyENSC_17_Hashtable_traitsILb1ELb0ELb1EEEE21_M_insert_unique_nodeEjjPNSC_10_Hash_nodeISA_Lb1EEE @4964
    _ZNSt10_HashtableIPKN6google8protobuf10DescriptorESt4pairIKS4_PKNS1_7MessageEESaISA_ENSt8__detail10_Select1stESt8equal_toIS4_ENS1_4hashIS4_EENSC_18_Mod_range_hashingENSC_20_Default_ranged_hashENSC_20_Prime_rehash_policyENSC_17_Hashtable_traitsILb1ELb0ELb1EEEE4findERS6_ @4965
    _ZNSt10_HashtableIPKcSt4pairIKS1_PFvRKSsEESaIS8_ENSt8__detail10_Select1stEN6google8protobuf5streqENSD_4hashIS1_EENSA_18_Mod_range_hashingENSA_20_Default_ranged_hashENSA_20_Prime_rehash_policyENSA_17_Hashtable_traitsILb1ELb0ELb1EEEE21_M_insert_unique_nodeEjjPNSA_10_Hash_nodeIS8_Lb1EEE @4966
    _ZNSt10_HashtableIPKcSt4pairIKS1_PFvRKSsEESaIS8_ENSt8__detail10_Select1stEN6google8protobuf5streqENSD_4hashIS1_EENSA_18_Mod_range_hashingENSA_20_Default_ranged_hashENSA_20_Prime_rehash_policyENSA_17_Hashtable_traitsILb1ELb0ELb1EEEED1Ev @4967
    _ZNSt10_HashtableIPKcSt4pairIKS1_PKN6google8protobuf14FileDescriptorEESaIS9_ENSt8__detail10_Select1stENS5_5streqENS5_4hashIS1_EENSB_18_Mod_range_hashingENSB_20_Default_ranged_hashENSB_20_Prime_rehash_policyENSB_17_Hashtable_traitsILb1ELb0ELb1EEEE21_M_insert_unique_nodeEjjPNSB_10_Hash_nodeIS9_Lb1EEE @4968
    _ZNSt10_HashtableISsSsSaISsENSt8__detail9_IdentityESt8equal_toISsEN6google8protobuf4hashISsEENS1_18_Mod_range_hashingENS1_20_Default_ranged_hashENS1_20_Prime_rehash_policyENS1_17_Hashtable_traitsILb1ELb1ELb1EEEE21_M_insert_unique_nodeEjjPNS1_10_Hash_nodeISsLb1EEE @4969
    _ZNSt10_HashtableISsSsSaISsENSt8__detail9_IdentityESt8equal_toISsEN6google8protobuf4hashISsEENS1_18_Mod_range_hashingENS1_20_Default_ranged_hashENS1_20_Prime_rehash_policyENS1_17_Hashtable_traitsILb1ELb1ELb1EEEE5clearEv @4970
    _ZNSt10_HashtableISsSsSaISsENSt8__detail9_IdentityESt8equal_toISsEN6google8protobuf4hashISsEENS1_18_Mod_range_hashingENS1_20_Default_ranged_hashENS1_20_Prime_rehash_policyENS1_17_Hashtable_traitsILb1ELb1ELb1EEEED1Ev @4971
    _ZNSt10_HashtableISsSt4pairIKSsPKN6google8protobuf23SourceCodeInfo_LocationEESaIS7_ENSt8__detail10_Select1stESt8equal_toISsENS3_4hashISsEENS9_18_Mod_range_hashingENS9_20_Default_ranged_hashENS9_20_Prime_rehash_policyENS9_17_Hashtable_traitsILb1ELb0ELb1EEEE21_M_insert_unique_nodeEjjPNS9_10_Hash_nodeIS7_Lb1EEE @4972
    _ZNSt10_HashtableISt4pairIPKN6google8protobuf11MessageLiteEiES0_IKS6_NS2_8internal13ExtensionInfoEESaISA_ENSt8__detail10_Select1stESt8equal_toIS6_ENS2_4hashIS6_EENSC_18_Mod_range_hashingENSC_20_Default_ranged_hashENSC_20_Prime_rehash_policyENSC_17_Hashtable_traitsILb1ELb0ELb1EEEE21_M_insert_unique_nodeEjjPNSC_10_Hash_nodeISA_Lb1EEE @4973
    _ZNSt10_Iter_baseIP10wayPoint_SLb0EE7_S_baseES1_ @4974
    _ZNSt11__copy_moveILb0ELb1ESt26random_access_iterator_tagE8__copy_mI10wayPoint_SEEPT_PKS4_S7_S5_ @4975
    _ZNSt12_Destroy_auxILb1EE9__destroyIP10wayPoint_SEEvT_S4_ @4976
    _ZNSt12_Vector_baseI10wayPoint_SSaIS0_EE11_M_allocateEj @4977
    _ZNSt12_Vector_baseI10wayPoint_SSaIS0_EE13_M_deallocateEPS0_j @4978
    _ZNSt12_Vector_baseI10wayPoint_SSaIS0_EE19_M_get_Tp_allocatorEv @4979
    _ZNSt20__copy_move_backwardILb0ELb1ESt26random_access_iterator_tagE13__copy_move_bI10wayPoint_SEEPT_PKS4_S7_S5_ @4980
    _ZNSt20__uninitialized_copyILb1EE13__uninit_copyIP10wayPoint_SS3_EET0_T_S5_S4_ @4981
    _ZNSt3mapIN20aubo_robot_namespace14RobotErrorCodeESsSt4lessIS1_ESaISt4pairIKS1_SsEEEixEOS1_ @4982
    _ZNSt3mapIN21CommunicationMateType24CommunicationCommandTypeESsSt4lessIS1_ESaISt4pairIKS1_SsEEEixEOS1_ @4983
    _ZNSt3mapISsiSt4lessISsESaISt4pairIKSsiEEEixEOSs @4984
    _ZNSt6vectorI10wayPoint_SSaIS0_EE13_M_insert_auxEN9__gnu_cxx17__normal_iteratorIPS0_S2_EERKS0_ @4985
    _ZNSt6vectorI10wayPoint_SSaIS0_EE15_M_erase_at_endEPS0_ @4986
    _ZNSt6vectorI10wayPoint_SSaIS0_EE19_M_emplace_back_auxIIRKS0_EEEvDpOT_ @4987
    _ZNSt6vectorI10wayPoint_SSaIS0_EE3endEv @4988
    _ZNSt6vectorI10wayPoint_SSaIS0_EE5beginEv @4989
    _ZNSt6vectorI10wayPoint_SSaIS0_EE5clearEv @4990
    _ZNSt6vectorI10wayPoint_SSaIS0_EE9push_backERKS0_ @4991
    _ZNSt6vectorI10wayPoint_SSaIS0_EEixEj @4992
    _ZNSt6vectorI22ROBOT_SERVICE_INSTANCESaIS0_EE19_M_emplace_back_auxIIRKS0_EEEvDpOT_ @4993
    _ZNSt6vectorIN20aubo_robot_namespace10wayPoint_SESaIS1_EE19_M_emplace_back_auxIIRKS1_EEEvDpOT_ @4994
    _ZNSt6vectorIN20aubo_robot_namespace11RobotIoDescESaIS1_EE19_M_emplace_back_auxIIRKS1_EEEvDpOT_ @4995
    _ZNSt6vectorIN20aubo_robot_namespace11RobotIoTypeESaIS1_EE19_M_emplace_back_auxIIRKS1_EEEvDpOT_ @4996
    _ZNSt6vectorIN20aubo_robot_namespace17RobotAnalogIODescESaIS1_EE19_M_emplace_back_auxIIRKS1_EEEvDpOT_ @4997
    _ZNSt6vectorIN20aubo_robot_namespace20RobotDiagnosisIODescESaIS1_EE19_M_emplace_back_auxIIRKS1_EEEvDpOT_ @4998
    _ZNSt6vectorIN6google8protobuf10TextFormat13ParseLocationESaIS3_EE19_M_emplace_back_auxIIRKS3_EEEvDpOT_ @4999
    _ZNSt6vectorIN6google8protobuf12UnknownFieldESaIS2_EE17_M_default_appendEj @5000
    _ZNSt6vectorIN6google8protobuf12UnknownFieldESaIS2_EE19_M_emplace_back_auxIIRKS2_EEEvDpOT_ @5001
    _ZNSt6vectorIN6google8protobuf14DescriptorPool6Tables10CheckPointESaIS4_EE19_M_emplace_back_auxIIS4_EEEvDpOT_ @5002
    _ZNSt6vectorIPFvvESaIS1_EE19_M_emplace_back_auxIIRKS1_EEEvDpOT_ @5003
    _ZNSt6vectorIPKN6google8protobuf15FieldDescriptorESaIS4_EE19_M_emplace_back_auxIIRKS4_EEEvDpOT_ @5004
    _ZNSt6vectorIPKN6google8protobuf15FieldDescriptorESaIS4_EE19_M_emplace_back_auxIIS4_EEEvDpOT_ @5005
    _ZNSt6vectorIPKN6google8protobuf19FileDescriptorProtoESaIS4_EE19_M_emplace_back_auxIIRKS4_EEEvDpOT_ @5006
    _ZNSt6vectorIPKcSaIS1_EE12emplace_backIIS1_EEEvDpOT_ @5007
    _ZNSt6vectorIPKcSaIS1_EE19_M_emplace_back_auxIIS1_EEEvDpOT_ @5008
    _ZNSt6vectorIPN6google8protobuf10TextFormat13ParseInfoTreeESaIS4_EE19_M_emplace_back_auxIIRKS4_EEEvDpOT_ @5009
    _ZNSt6vectorIPN6google8protobuf18DescriptorDatabaseESaIS3_EE19_M_emplace_back_auxIIRKS3_EEEvDpOT_ @5010
    _ZNSt6vectorIPN6google8protobuf20FileDescriptorTablesESaIS3_EE17_M_default_appendEj @5011
    _ZNSt6vectorIPN6google8protobuf20FileDescriptorTablesESaIS3_EE19_M_emplace_back_auxIIRKS3_EEEvDpOT_ @5012
    _ZNSt6vectorIPN6google8protobuf7MessageESaIS3_EE12emplace_backIIS3_EEEvDpOT_ @5013
    _ZNSt6vectorIPN6google8protobuf7MessageESaIS3_EE17_M_default_appendEj @5014
    _ZNSt6vectorIPN6google8protobuf7MessageESaIS3_EE19_M_emplace_back_auxIIS3_EEEvDpOT_ @5015
    _ZNSt6vectorIPSsSaIS0_EE17_M_default_appendEj @5016
    _ZNSt6vectorIPSsSaIS0_EE19_M_emplace_back_auxIIRKS0_EEEvDpOT_ @5017
    _ZNSt6vectorIPvSaIS0_EE17_M_default_appendEj @5018
    _ZNSt6vectorIPvSaIS0_EE19_M_emplace_back_auxIIRKS0_EEEvDpOT_ @5019
    _ZNSt6vectorISsSaISsEE12emplace_backIISsEEEvDpOT_ @5020
    _ZNSt6vectorISsSaISsEE19_M_emplace_back_auxIIRKSsEEEvDpOT_ @5021
    _ZNSt6vectorISsSaISsEE19_M_emplace_back_auxIISsEEEvDpOT_ @5022
    _ZNSt6vectorISsSaISsEED1Ev @5023
    _ZNSt6vectorISt4pairIPKN6google8protobuf10DescriptorEiESaIS6_EE17_M_default_appendEj @5024
    _ZNSt6vectorISt4pairIPKN6google8protobuf10DescriptorEiESaIS6_EE19_M_emplace_back_auxIIRKS6_EEEvDpOT_ @5025
    _ZNSt6vectorIbSaIbEE13_M_insert_auxESt13_Bit_iteratorb @5026
    _ZNSt6vectorIdSaIdEE19_M_emplace_back_auxIIRKdEEEvDpOT_ @5027
    _ZNSt6vectorIdSaIdEE19_M_emplace_back_auxIIdEEEvDpOT_ @5028
    _ZNSt6vectorIiSaIiEE12emplace_backIIiEEEvDpOT_ @5029
    _ZNSt6vectorIiSaIiEE13_M_insert_auxIIRKiEEEvN9__gnu_cxx17__normal_iteratorIPiS1_EEDpOT_ @5030
    _ZNSt6vectorIiSaIiEE13_M_insert_auxIIiEEEvN9__gnu_cxx17__normal_iteratorIPiS1_EEDpOT_ @5031
    _ZNSt6vectorIiSaIiEE19_M_emplace_back_auxIIRKiEEEvDpOT_ @5032
    _ZNSt6vectorIiSaIiEE19_M_emplace_back_auxIIiEEEvDpOT_ @5033
    _ZNSt8_Rb_treeIN20aubo_robot_namespace11RobotIoTypeESt4pairIKS1_St3mapISsiSt4lessISsESaIS2_IKSsiEEEESt10_Select1stISB_ES5_IS1_ESaISB_EE14_M_insert_nodeEPSt18_Rb_tree_node_baseSI_PSt13_Rb_tree_nodeISB_E @5034
    _ZNSt8_Rb_treeIN20aubo_robot_namespace11RobotIoTypeESt4pairIKS1_St3mapISsiSt4lessISsESaIS2_IKSsiEEEESt10_Select1stISB_ES5_IS1_ESaISB_EE24_M_get_insert_unique_posERS3_ @5035
    _ZNSt8_Rb_treeIN20aubo_robot_namespace11RobotIoTypeESt4pairIKS1_St3mapISsiSt4lessISsESaIS2_IKSsiEEEESt10_Select1stISB_ES5_IS1_ESaISB_EE29_M_get_insert_hint_unique_posESt23_Rb_tree_const_iteratorISB_ERS3_ @5036
    _ZNSt8_Rb_treeIN20aubo_robot_namespace11RobotIoTypeESt4pairIKS1_St3mapISsiSt4lessISsESaIS2_IKSsiEEEESt10_Select1stISB_ES5_IS1_ESaISB_EE8_M_eraseEPSt13_Rb_tree_nodeISB_E @5037
    _ZNSt8_Rb_treeIN20aubo_robot_namespace11RobotIoTypeESt4pairIKS1_St3setISsSt4lessISsESaISsEEESt10_Select1stIS9_ES5_IS1_ESaIS9_EE24_M_get_insert_unique_posERS3_ @5038
    _ZNSt8_Rb_treeIN20aubo_robot_namespace11RobotIoTypeESt4pairIKS1_St3setISsSt4lessISsESaISsEEESt10_Select1stIS9_ES5_IS1_ESaIS9_EE29_M_get_insert_hint_unique_posESt23_Rb_tree_const_iteratorIS9_ERS3_ @5039
    _ZNSt8_Rb_treeIN20aubo_robot_namespace11RobotIoTypeESt4pairIKS1_St3setISsSt4lessISsESaISsEEESt10_Select1stIS9_ES5_IS1_ESaIS9_EE8_M_eraseEPSt13_Rb_tree_nodeIS9_E @5040
    _ZNSt8_Rb_treeIN20aubo_robot_namespace11RobotIoTypeESt4pairIKS1_St3setIiSt4lessIiESaIiEEESt10_Select1stIS9_ES5_IS1_ESaIS9_EE14_M_insert_nodeEPSt18_Rb_tree_node_baseSG_PSt13_Rb_tree_nodeIS9_E @5041
    _ZNSt8_Rb_treeIN20aubo_robot_namespace11RobotIoTypeESt4pairIKS1_St3setIiSt4lessIiESaIiEEESt10_Select1stIS9_ES5_IS1_ESaIS9_EE24_M_get_insert_unique_posERS3_ @5042
    _ZNSt8_Rb_treeIN20aubo_robot_namespace11RobotIoTypeESt4pairIKS1_St3setIiSt4lessIiESaIiEEESt10_Select1stIS9_ES5_IS1_ESaIS9_EE29_M_get_insert_hint_unique_posESt23_Rb_tree_const_iteratorIS9_ERS3_ @5043
    _ZNSt8_Rb_treeIN20aubo_robot_namespace11RobotIoTypeESt4pairIKS1_St3setIiSt4lessIiESaIiEEESt10_Select1stIS9_ES5_IS1_ESaIS9_EE8_M_eraseEPSt13_Rb_tree_nodeIS9_E @5044
    _ZNSt8_Rb_treeIN20aubo_robot_namespace14RobotErrorCodeESt4pairIKS1_SsESt10_Select1stIS4_ESt4lessIS1_ESaIS4_EE14_M_insert_nodeEPSt18_Rb_tree_node_baseSC_PSt13_Rb_tree_nodeIS4_E @5045
    _ZNSt8_Rb_treeIN20aubo_robot_namespace14RobotErrorCodeESt4pairIKS1_SsESt10_Select1stIS4_ESt4lessIS1_ESaIS4_EE22_M_emplace_hint_uniqueIIRKSt21piecewise_construct_tSt5tupleIIOS1_EESF_IIEEEEESt17_Rb_tree_iteratorIS4_ESt23_Rb_tree_const_iteratorIS4_EDpOT_ @5046
    _ZNSt8_Rb_treeIN20aubo_robot_namespace14RobotErrorCodeESt4pairIKS1_SsESt10_Select1stIS4_ESt4lessIS1_ESaIS4_EE22_M_emplace_hint_uniqueIIRKSt21piecewise_construct_tSt5tupleIIRS3_EESF_IIEEEEESt17_Rb_tree_iteratorIS4_ESt23_Rb_tree_const_iteratorIS4_EDpOT_ @5047
    _ZNSt8_Rb_treeIN20aubo_robot_namespace14RobotErrorCodeESt4pairIKS1_SsESt10_Select1stIS4_ESt4lessIS1_ESaIS4_EE24_M_get_insert_unique_posERS3_ @5048
    _ZNSt8_Rb_treeIN20aubo_robot_namespace14RobotErrorCodeESt4pairIKS1_SsESt10_Select1stIS4_ESt4lessIS1_ESaIS4_EE29_M_get_insert_hint_unique_posESt23_Rb_tree_const_iteratorIS4_ERS3_ @5049
    _ZNSt8_Rb_treeIN20aubo_robot_namespace14RobotErrorCodeESt4pairIKS1_SsESt10_Select1stIS4_ESt4lessIS1_ESaIS4_EE8_M_eraseEPSt13_Rb_tree_nodeIS4_E @5050
    _ZNSt8_Rb_treeIN21CommunicationMateType24CommunicationCommandTypeESt4pairIKS1_SsESt10_Select1stIS4_ESt4lessIS1_ESaIS4_EE14_M_insert_nodeEPSt18_Rb_tree_node_baseSC_PSt13_Rb_tree_nodeIS4_E @5051
    _ZNSt8_Rb_treeIN21CommunicationMateType24CommunicationCommandTypeESt4pairIKS1_SsESt10_Select1stIS4_ESt4lessIS1_ESaIS4_EE22_M_emplace_hint_uniqueIIRKSt21piecewise_construct_tSt5tupleIIOS1_EESF_IIEEEEESt17_Rb_tree_iteratorIS4_ESt23_Rb_tree_const_iteratorIS4_EDpOT_ @5052
    _ZNSt8_Rb_treeIN21CommunicationMateType24CommunicationCommandTypeESt4pairIKS1_SsESt10_Select1stIS4_ESt4lessIS1_ESaIS4_EE22_M_emplace_hint_uniqueIIRKSt21piecewise_construct_tSt5tupleIIRS3_EESF_IIEEEEESt17_Rb_tree_iteratorIS4_ESt23_Rb_tree_const_iteratorIS4_EDpOT_ @5053
    _ZNSt8_Rb_treeIN21CommunicationMateType24CommunicationCommandTypeESt4pairIKS1_SsESt10_Select1stIS4_ESt4lessIS1_ESaIS4_EE24_M_get_insert_unique_posERS3_ @5054
    _ZNSt8_Rb_treeIN21CommunicationMateType24CommunicationCommandTypeESt4pairIKS1_SsESt10_Select1stIS4_ESt4lessIS1_ESaIS4_EE29_M_get_insert_hint_unique_posESt23_Rb_tree_const_iteratorIS4_ERS3_ @5055
    _ZNSt8_Rb_treeIN21CommunicationMateType24CommunicationCommandTypeESt4pairIKS1_SsESt10_Select1stIS4_ESt4lessIS1_ESaIS4_EE8_M_eraseEPSt13_Rb_tree_nodeIS4_E @5056
    _ZNSt8_Rb_treeIPKN6google8protobuf10DescriptorES4_St9_IdentityIS4_ESt4lessIS4_ESaIS4_EE16_M_insert_uniqueIS4_EESt4pairISt17_Rb_tree_iteratorIS4_EbEOT_ @5057
    _ZNSt8_Rb_treeIPKN6google8protobuf10DescriptorES4_St9_IdentityIS4_ESt4lessIS4_ESaIS4_EE8_M_eraseEPSt13_Rb_tree_nodeIS4_E @5058
    _ZNSt8_Rb_treeIPKN6google8protobuf14FileDescriptorES4_St9_IdentityIS4_ESt4lessIS4_ESaIS4_EE16_M_insert_uniqueIRKS4_EESt4pairISt17_Rb_tree_iteratorIS4_EbEOT_ @5059
    _ZNSt8_Rb_treeIPKN6google8protobuf14FileDescriptorES4_St9_IdentityIS4_ESt4lessIS4_ESaIS4_EE5eraseERKS4_ @5060
    _ZNSt8_Rb_treeIPKN6google8protobuf14FileDescriptorES4_St9_IdentityIS4_ESt4lessIS4_ESaIS4_EE8_M_eraseEPSt13_Rb_tree_nodeIS4_E @5061
    _ZNSt8_Rb_treeIPKN6google8protobuf15FieldDescriptorESt4pairIKS4_PKNS1_10TextFormat17FieldValuePrinterEESt10_Select1stISB_ESt4lessIS4_ESaISB_EE16_M_insert_uniqueIS5_IS4_SA_EEES5_ISt17_Rb_tree_iteratorISB_EbEOT_ @5062
    _ZNSt8_Rb_treeIPKN6google8protobuf15FieldDescriptorESt4pairIKS4_PKNS1_10TextFormat17FieldValuePrinterEESt10_Select1stISB_ESt4lessIS4_ESaISB_EE8_M_eraseEPSt13_Rb_tree_nodeISB_E @5063
    _ZNSt8_Rb_treeIPKN6google8protobuf15FieldDescriptorESt4pairIKS4_St6vectorINS1_10TextFormat13ParseLocationESaIS9_EEESt10_Select1stISC_ESt4lessIS4_ESaISC_EE24_M_get_insert_unique_posERS6_ @5064
    _ZNSt8_Rb_treeIPKN6google8protobuf15FieldDescriptorESt4pairIKS4_St6vectorINS1_10TextFormat13ParseLocationESaIS9_EEESt10_Select1stISC_ESt4lessIS4_ESaISC_EE29_M_get_insert_hint_unique_posESt23_Rb_tree_const_iteratorISC_ERS6_ @5065
    _ZNSt8_Rb_treeIPKN6google8protobuf15FieldDescriptorESt4pairIKS4_St6vectorINS1_10TextFormat13ParseLocationESaIS9_EEESt10_Select1stISC_ESt4lessIS4_ESaISC_EE8_M_eraseEPSt13_Rb_tree_nodeISC_E @5066
    _ZNSt8_Rb_treeIPKN6google8protobuf15FieldDescriptorESt4pairIKS4_St6vectorIPNS1_10TextFormat13ParseInfoTreeESaISA_EEESt10_Select1stISD_ESt4lessIS4_ESaISD_EE24_M_get_insert_unique_posERS6_ @5067
    _ZNSt8_Rb_treeIPKN6google8protobuf15FieldDescriptorESt4pairIKS4_St6vectorIPNS1_10TextFormat13ParseInfoTreeESaISA_EEESt10_Select1stISD_ESt4lessIS4_ESaISD_EE29_M_get_insert_hint_unique_posESt23_Rb_tree_const_iteratorISD_ERS6_ @5068
    _ZNSt8_Rb_treeIPKN6google8protobuf15FieldDescriptorESt4pairIKS4_St6vectorIPNS1_10TextFormat13ParseInfoTreeESaISA_EEESt10_Select1stISD_ESt4lessIS4_ESaISD_EE8_M_eraseEPSt13_Rb_tree_nodeISD_E @5069
    _ZNSt8_Rb_treeISsSsSt9_IdentityISsESt4lessISsESaISsEE16_M_insert_uniqueIRKSsEESt4pairISt17_Rb_tree_iteratorISsEbEOT_ @5070
    _ZNSt8_Rb_treeISsSsSt9_IdentityISsESt4lessISsESaISsEE16_M_insert_uniqueISsEESt4pairISt17_Rb_tree_iteratorISsEbEOT_ @5071
    _ZNSt8_Rb_treeISsSsSt9_IdentityISsESt4lessISsESaISsEE24_M_get_insert_unique_posERKSs @5072
    _ZNSt8_Rb_treeISsSsSt9_IdentityISsESt4lessISsESaISsEE7_M_copyEPKSt13_Rb_tree_nodeISsEPS7_ @5073
    _ZNSt8_Rb_treeISsSsSt9_IdentityISsESt4lessISsESaISsEE8_M_eraseEPSt13_Rb_tree_nodeISsE @5074
    _ZNSt8_Rb_treeISsSsSt9_IdentityISsESt4lessISsESaISsEEaSERKS5_ @5075
    _ZNSt8_Rb_treeISsSt4pairIKSsPKN6google8protobuf19FileDescriptorProtoEESt10_Select1stIS7_ESt4lessISsESaIS7_EE10_M_insert_IRKS7_EESt17_Rb_tree_iteratorIS7_EPSt18_Rb_tree_node_baseSK_OT_ @5076
    _ZNSt8_Rb_treeISsSt4pairIKSsPKN6google8protobuf19FileDescriptorProtoEESt10_Select1stIS7_ESt4lessISsESaIS7_EE10_M_insert_IS7_EESt17_Rb_tree_iteratorIS7_EPSt18_Rb_tree_node_baseSI_OT_ @5077
    _ZNSt8_Rb_treeISsSt4pairIKSsPKN6google8protobuf19FileDescriptorProtoEESt10_Select1stIS7_ESt4lessISsESaIS7_EE24_M_get_insert_unique_posERS1_ @5078
    _ZNSt8_Rb_treeISsSt4pairIKSsPKN6google8protobuf19FileDescriptorProtoEESt10_Select1stIS7_ESt4lessISsESaIS7_EE29_M_get_insert_hint_unique_posESt23_Rb_tree_const_iteratorIS7_ERS1_ @5079
    _ZNSt8_Rb_treeISsSt4pairIKSsPKN6google8protobuf19FileDescriptorProtoEESt10_Select1stIS7_ESt4lessISsESaIS7_EE8_M_eraseEPSt13_Rb_tree_nodeIS7_E @5080
    _ZNSt8_Rb_treeISsSt4pairIKSsS0_IPKviEESt10_Select1stIS5_ESt4lessISsESaIS5_EE10_M_insert_IRKS5_EESt17_Rb_tree_iteratorIS5_EPSt18_Rb_tree_node_baseSI_OT_ @5081
    _ZNSt8_Rb_treeISsSt4pairIKSsS0_IPKviEESt10_Select1stIS5_ESt4lessISsESaIS5_EE10_M_insert_IS5_EESt17_Rb_tree_iteratorIS5_EPSt18_Rb_tree_node_baseSG_OT_ @5082
    _ZNSt8_Rb_treeISsSt4pairIKSsS0_IPKviEESt10_Select1stIS5_ESt4lessISsESaIS5_EE24_M_get_insert_unique_posERS1_ @5083
    _ZNSt8_Rb_treeISsSt4pairIKSsS0_IPKviEESt10_Select1stIS5_ESt4lessISsESaIS5_EE29_M_get_insert_hint_unique_posESt23_Rb_tree_const_iteratorIS5_ERS1_ @5084
    _ZNSt8_Rb_treeISsSt4pairIKSsS0_IPKviEESt10_Select1stIS5_ESt4lessISsESaIS5_EE8_M_eraseEPSt13_Rb_tree_nodeIS5_E @5085
    _ZNSt8_Rb_treeISsSt4pairIKSsiESt10_Select1stIS2_ESt4lessISsESaIS2_EE14_M_insert_nodeEPSt18_Rb_tree_node_baseSA_PSt13_Rb_tree_nodeIS2_E @5086
    _ZNSt8_Rb_treeISsSt4pairIKSsiESt10_Select1stIS2_ESt4lessISsESaIS2_EE22_M_emplace_hint_uniqueIIRKSt21piecewise_construct_tSt5tupleIIOSsEESD_IIEEEEESt17_Rb_tree_iteratorIS2_ESt23_Rb_tree_const_iteratorIS2_EDpOT_ @5087
    _ZNSt8_Rb_treeISsSt4pairIKSsiESt10_Select1stIS2_ESt4lessISsESaIS2_EE22_M_emplace_hint_uniqueIIRKSt21piecewise_construct_tSt5tupleIIRS1_EESD_IIEEEEESt17_Rb_tree_iteratorIS2_ESt23_Rb_tree_const_iteratorIS2_EDpOT_ @5088
    _ZNSt8_Rb_treeISsSt4pairIKSsiESt10_Select1stIS2_ESt4lessISsESaIS2_EE24_M_get_insert_unique_posERS1_ @5089
    _ZNSt8_Rb_treeISsSt4pairIKSsiESt10_Select1stIS2_ESt4lessISsESaIS2_EE29_M_get_insert_hint_unique_posESt23_Rb_tree_const_iteratorIS2_ERS1_ @5090
    _ZNSt8_Rb_treeISsSt4pairIKSsiESt10_Select1stIS2_ESt4lessISsESaIS2_EE7_M_copyEPKSt13_Rb_tree_nodeIS2_EPSA_ @5091
    _ZNSt8_Rb_treeISsSt4pairIKSsiESt10_Select1stIS2_ESt4lessISsESaIS2_EE8_M_eraseEPSt13_Rb_tree_nodeIS2_E @5092
    _ZNSt8_Rb_treeISsSt4pairIKSsiESt10_Select1stIS2_ESt4lessISsESaIS2_EEaSERKS8_ @5093
    _ZNSt8_Rb_treeISt4pairIPKN6google8protobuf10DescriptorEiES0_IKS6_PKNS2_15FieldDescriptorEESt10_Select1stISB_ESt4lessIS6_ESaISB_EE11equal_rangeERS7_ @5094
    _ZNSt8_Rb_treeISt4pairIPKN6google8protobuf10DescriptorEiES0_IKS6_PKNS2_15FieldDescriptorEESt10_Select1stISB_ESt4lessIS6_ESaISB_EE4findERS7_ @5095
    _ZNSt8_Rb_treeISt4pairIPKN6google8protobuf10DescriptorEiES0_IKS6_PKNS2_15FieldDescriptorEESt10_Select1stISB_ESt4lessIS6_ESaISB_EE8_M_eraseEPSt13_Rb_tree_nodeISB_E @5096
    _ZNSt8_Rb_treeISt4pairISsiES0_IKS1_PKN6google8protobuf19FileDescriptorProtoEESt10_Select1stIS8_ESt4lessIS1_ESaIS8_EE10_M_insert_IRKS8_EESt17_Rb_tree_iteratorIS8_EPSt18_Rb_tree_node_baseSL_OT_ @5097
    _ZNSt8_Rb_treeISt4pairISsiES0_IKS1_PKN6google8protobuf19FileDescriptorProtoEESt10_Select1stIS8_ESt4lessIS1_ESaIS8_EE8_M_eraseEPSt13_Rb_tree_nodeIS8_E @5098
    _ZNSt8_Rb_treeISt4pairISsiES0_IKS1_S0_IPKviEESt10_Select1stIS6_ESt4lessIS1_ESaIS6_EE10_M_insert_IRKS6_EESt17_Rb_tree_iteratorIS6_EPSt18_Rb_tree_node_baseSJ_OT_ @5099
    _ZNSt8_Rb_treeISt4pairISsiES0_IKS1_S0_IPKviEESt10_Select1stIS6_ESt4lessIS1_ESaIS6_EE8_M_eraseEPSt13_Rb_tree_nodeIS6_E @5100
    _ZNSt8_Rb_treeIiSt4pairIKiN6google8protobuf8internal12ExtensionSet9ExtensionEESt10_Select1stIS7_ESt4lessIiESaIS7_EE16_M_insert_uniqueIS0_IiS6_EEES0_ISt17_Rb_tree_iteratorIS7_EbEOT_ @5101
    _ZNSt8_Rb_treeIiSt4pairIKiN6google8protobuf8internal12ExtensionSet9ExtensionEESt10_Select1stIS7_ESt4lessIiESaIS7_EE4findERS1_ @5102
    _ZNSt8_Rb_treeIiSt4pairIKiN6google8protobuf8internal12ExtensionSet9ExtensionEESt10_Select1stIS7_ESt4lessIiESaIS7_EE5eraseERS1_ @5103
    _ZNSt8_Rb_treeIiSt4pairIKiN6google8protobuf8internal12ExtensionSet9ExtensionEESt10_Select1stIS7_ESt4lessIiESaIS7_EE8_M_eraseEPSt13_Rb_tree_nodeIS7_E @5104
    _ZNSt8_Rb_treeIiSt4pairIKiSsESt10_Select1stIS2_ESt4lessIiESaIS2_EE22_M_emplace_hint_uniqueIIRKSt21piecewise_construct_tSt5tupleIIOiEESD_IIEEEEESt17_Rb_tree_iteratorIS2_ESt23_Rb_tree_const_iteratorIS2_EDpOT_ @5105
    _ZNSt8_Rb_treeIiSt4pairIKiSsESt10_Select1stIS2_ESt4lessIiESaIS2_EE24_M_get_insert_unique_posERS1_ @5106
    _ZNSt8_Rb_treeIiSt4pairIKiSsESt10_Select1stIS2_ESt4lessIiESaIS2_EE29_M_get_insert_hint_unique_posESt23_Rb_tree_const_iteratorIS2_ERS1_ @5107
    _ZNSt8_Rb_treeIiSt4pairIKiSsESt10_Select1stIS2_ESt4lessIiESaIS2_EE8_M_eraseEPSt13_Rb_tree_nodeIS2_E @5108
    _ZNSt8_Rb_treeIiiSt9_IdentityIiESt4lessIiESaIiEE16_M_insert_uniqueIRKiEESt4pairISt17_Rb_tree_iteratorIiEbEOT_ @5109
    _ZNSt8_Rb_treeIiiSt9_IdentityIiESt4lessIiESaIiEE17_M_insert_unique_IRiEESt17_Rb_tree_iteratorIiESt23_Rb_tree_const_iteratorIiEOT_ @5110
    _ZNSt8_Rb_treeIiiSt9_IdentityIiESt4lessIiESaIiEE24_M_get_insert_unique_posERKi @5111
    _ZNSt8_Rb_treeIiiSt9_IdentityIiESt4lessIiESaIiEE29_M_get_insert_hint_unique_posESt23_Rb_tree_const_iteratorIiERKi @5112
    _ZNSt8_Rb_treeIiiSt9_IdentityIiESt4lessIiESaIiEE7_M_copyEPKSt13_Rb_tree_nodeIiEPS7_ @5113
    _ZNSt8_Rb_treeIiiSt9_IdentityIiESt4lessIiESaIiEE8_M_eraseEPSt13_Rb_tree_nodeIiE @5114
    _ZNSt8_Rb_treeIiiSt9_IdentityIiESt4lessIiESaIiEEaSERKS5_ @5115
    _ZNSt8__detail9_Map_baseIPKN6google8protobuf10DescriptorESt4pairIKS5_PKNS2_14DynamicMessage8TypeInfoEESaISC_ENS_10_Select1stESt8equal_toIS5_ENS2_4hashIS5_EENS_18_Mod_range_hashingENS_20_Default_ranged_hashENS_20_Prime_rehash_policyENS_17_Hashtable_traitsILb1ELb0ELb1EEELb1EEixERS7_ @5116
    _ZSt12__miter_baseIP10wayPoint_SENSt11_Miter_baseIT_E13iterator_typeES3_ @5117
    _ZSt12__niter_baseIP10wayPoint_SENSt11_Niter_baseIT_E13iterator_typeES3_ @5118
    _ZSt13__copy_move_aILb0EP10wayPoint_SS1_ET1_T0_S3_S2_ @5119
    _ZSt13copy_backwardIP10wayPoint_SS1_ET0_T_S3_S2_ @5120
    _ZSt14__copy_move_a2ILb0EP10wayPoint_SS1_ET1_T0_S3_S2_ @5121
    _ZSt18uninitialized_copyIP10wayPoint_SS1_ET0_T_S3_S2_ @5122
    _ZSt22__copy_move_backward_aILb0EP10wayPoint_SS1_ET1_T0_S3_S2_ @5123
    _ZSt22__uninitialized_copy_aIP10wayPoint_SS1_S0_ET0_T_S3_S2_RSaIT1_E @5124
    _ZSt23__copy_move_backward_a2ILb0EP10wayPoint_SS1_ET1_T0_S3_S2_ @5125
    _ZSt34__uninitialized_move_if_noexcept_aIP10wayPoint_SS1_SaIS0_EET0_T_S4_S3_RT1_ @5126
    _ZSt3absd @5127
    _ZSt3maxIjERKT_S2_S2_ @5128
    _ZSt4copyIP10wayPoint_SS1_ET0_T_S3_S2_ @5129
    _ZSt8_DestroyIP10wayPoint_SEvT_S2_ @5130
    _ZSt8_DestroyIP10wayPoint_SS0_EvT_S2_RSaIT0_E @5131
    _ZSteqIcEN9__gnu_cxx11__enable_ifIXsrSt9__is_charIT_E7__valueEbE6__typeERKSbIS3_St11char_traitsIS3_ESaIS3_EESC_ @5132
    _ZStplIcSt11char_traitsIcESaIcEESbIT_T0_T1_EOS6_PKS3_ @5133
    _ZStplIcSt11char_traitsIcESaIcEESbIT_T0_T1_EOS6_RKS6_ @5134
    _ZStplIcSt11char_traitsIcESaIcEESbIT_T0_T1_EPKS3_RKS6_ @5135
    _ZStplIcSt11char_traitsIcESaIcEESbIT_T0_T1_ERKS6_S8_ @5136
    _ZTI20RobotControlServices @5137 DATA
    _ZTI24RobotCommunicationClient @5138 DATA
    _ZTIN4aubo5robot13communication10OriginPoseE @5139 DATA
    _ZTIN4aubo5robot13communication11JointStatusE @5140 DATA
    _ZTIN4aubo5robot13communication12JointVersionE @5141 DATA
    _ZTIN4aubo5robot13communication13RobotTcpParamE @5142 DATA
    _ZTIN4aubo5robot13communication14RobotDiagnosisE @5143 DATA
    _ZTIN4aubo5robot13communication15OurRobotDevInfoE @5144 DATA
    _ZTIN4aubo5robot13communication15RobotToolConfigE @5145 DATA
    _ZTIN4aubo5robot13communication15RobotToolStatusE @5146 DATA
    _ZTIN4aubo5robot13communication15toolAllIOStatusE @5147 DATA
    _ZTIN4aubo5robot13communication16OrpeSafetyStatusE @5148 DATA
    _ZTIN4aubo5robot13communication17ProtoRequestLoginE @5149 DATA
    _ZTIN4aubo5robot13communication17RobotExtDiagnosisE @5150 DATA
    _ZTIN4aubo5robot13communication17RobotSafetyConfigE @5151 DATA
    _ZTIN4aubo5robot13communication17ToolDigitalStatusE @5152 DATA
    _ZTIN4aubo5robot13communication19InterfaceBoardErrorE @5153 DATA
    _ZTIN4aubo5robot13communication21RobotCollisionCurrentE @5154 DATA
    _ZTIN4aubo5robot13communication21RobotGravityComponentE @5155 DATA
    _ZTIN4aubo5robot13communication22ProtoRobotAnalogIODescE @5156 DATA
    _ZTIN4aubo5robot13communication24ProtoRobotCommonResponseE @5157 DATA
    _ZTIN4aubo5robot13communication25ProtoRobotDiagnosisIODescE @5158 DATA
    _ZTIN4aubo5robot13communication27ProtoCommunicationIntVectorE @5159 DATA
    _ZTIN4aubo5robot13communication27protoSafeCommunicationParamE @5160 DATA
    _ZTIN4aubo5robot13communication28ProtoCommunicationRobotEventE @5161 DATA
    _ZTIN4aubo5robot13communication29ProtoCommunicationGeneralDataE @5162 DATA
    _ZTIN4aubo5robot13communication30ProtoCommunicationDoubleVectorE @5163 DATA
    _ZTIN4aubo5robot13communication34ProtoCommunicationOfflineExcitTrajE @5164 DATA
    _ZTIN4aubo5robot13communication35ProtoCommunicationIntVectorResponseE @5165 DATA
    _ZTIN4aubo5robot13communication35ProtoCommunicationRobotAnalogIODataE @5166 DATA
    _ZTIN4aubo5robot13communication36ProtoCommunicationDynIdentifyResultsE @5167 DATA
    _ZTIN4aubo5robot13communication36ProtoCommunicationRobotBoardFirmwareE @5168 DATA
    _ZTIN4aubo5robot13communication36ProtoCommunicationRobotDiagnosisInfoE @5169 DATA
    _ZTIN4aubo5robot13communication37ProtoCommunicationRobotStartupProfileE @5170 DATA
    _ZTIN4aubo5robot13communication38ProtoCommunicationDoubleVectorResponseE @5171 DATA
    _ZTIN4aubo5robot13communication38ProtoCommunicationRobotDiagnosisIODataE @5172 DATA
    _ZTIN4aubo5robot13communication44ProtoCommunicationEthernetDeviceNameResponseE @5173 DATA
    _ZTIN4aubo5robot13communication45ProtoCommunicationToolAllIOStatusInfoResponseE @5174 DATA
    _ZTIN4aubo5robot13communication8TagIoCfgE @5175 DATA
    _ZTIN4aubo5robot13communication8TcpParamE @5176 DATA
    _ZTIN4aubo5robot13communication9ModbusCfgE @5177 DATA
    _ZTIN4aubo5robot6common11ToolInertiaE @5178 DATA
    _ZTIN4aubo5robot6common12joint_cart_UE @5179 DATA
    _ZTIN4aubo5robot6common14ProtoRoadPointE @5180 DATA
    _ZTIN4aubo5robot6common14RobotTeachMoveE @5181 DATA
    _ZTIN4aubo5robot6common14arrivalAhead_tE @5182 DATA
    _ZTIN4aubo5robot6common14cartesianOri_UE @5183 DATA
    _ZTIN4aubo5robot6common14cartesianPos_UE @5184 DATA
    _ZTIN4aubo5robot6common14relativeMove_tE @5185 DATA
    _ZTIN4aubo5robot6common15ProtoJointAngleE @5186 DATA
    _ZTIN4aubo5robot6common16ProtoJointStatusE @5187 DATA
    _ZTIN4aubo5robot6common16RobotJointOffsetE @5188 DATA
    _ZTIN4aubo5robot6common16RobotMoveProfileE @5189 DATA
    _ZTIN4aubo5robot6common17ToolDynamicsParamE @5190 DATA
    _ZTIN4aubo5robot6common18ProtoToolInEndDescE @5191 DATA
    _ZTIN4aubo5robot6common19RobotCommonResponseE @5192 DATA
    _ZTIN4aubo5robot6common19ToolKinematicsParamE @5193 DATA
    _ZTIN4aubo5robot6common21ProtoOrpeSafetyStatusE @5194 DATA
    _ZTIN4aubo5robot6common22ProtoRobotSafetyConfigE @5195 DATA
    _ZTIN4aubo5robot6common23ProtoJointAngleResponseE @5196 DATA
    _ZTIN4aubo5robot6common24ProtoRobotMoveFuncResultE @5197 DATA
    _ZTIN4aubo5robot6common25ProtoResponseRobotDevInfoE @5198 DATA
    _ZTIN4aubo5robot6common25ProtoResponseRobotDhParamE @5199 DATA
    _ZTIN4aubo5robot6common26ProtoResponseRobotTcpParamE @5200 DATA
    _ZTIN4aubo5robot6common28ProtoConveyorTrackValuePointE @5201 DATA
    _ZTIN4aubo5robot6common29ProtoResponseOrpeSafetyStatusE @5202 DATA
    _ZTIN4aubo5robot6common30ProtoResponseRobotSafetyConfigE @5203 DATA
    _ZTIN4aubo5robot6common32ProtoRobotAllJointStatusResponseE @5204 DATA
    _ZTIN4aubo5robot6common34ProtoResponseRobotCollisionCurrentE @5205 DATA
    _ZTIN4aubo5robot6common34ProtoResponseRobotGravityComponentE @5206 DATA
    _ZTIN4aubo5robot6common3OriE @5207 DATA
    _ZTIN4aubo5robot6common3PosE @5208 DATA
    _ZTIN4aubo5robot6common7DhParamE @5209 DATA
    _ZTIN4aubo5robot6common9RobotMoveE @5210 DATA
    _ZTIN4aubo5robot6common9ToolParamE @5211 DATA
    _ZTIN6google8protobuf10ReflectionE @5212 DATA
    _ZTIN6google8protobuf10TextFormat17FieldValuePrinterE @5213 DATA
    _ZTIN6google8protobuf10TextFormat6FinderE @5214 DATA
    _ZTIN6google8protobuf10TextFormat6Parser10ParserImpl20ParserErrorCollectorE @5215 DATA
    _ZTIN6google8protobuf11EnumOptionsE @5216 DATA
    _ZTIN6google8protobuf11FileOptionsE @5217 DATA
    _ZTIN6google8protobuf11MessageLiteE @5218 DATA
    _ZTIN6google8protobuf12FieldOptionsE @5219 DATA
    _ZTIN6google8protobuf13MethodOptionsE @5220 DATA
    _ZTIN6google8protobuf14DescriptorPool14ErrorCollectorE @5221 DATA
    _ZTIN6google8protobuf14DynamicMessageE @5222 DATA
    _ZTIN6google8protobuf14FatalExceptionE @5223 DATA
    _ZTIN6google8protobuf14MessageFactoryE @5224 DATA
    _ZTIN6google8protobuf14MessageOptionsE @5225 DATA
    _ZTIN6google8protobuf14ServiceOptionsE @5226 DATA
    _ZTIN6google8protobuf14SourceCodeInfoE @5227 DATA
    _ZTIN6google8protobuf15DescriptorProtoE @5228 DATA
    _ZTIN6google8protobuf16EnumValueOptionsE @5229 DATA
    _ZTIN6google8protobuf17DescriptorBuilder17OptionInterpreter21AggregateOptionFinderE @5230 DATA
    _ZTIN6google8protobuf17FileDescriptorSetE @5231 DATA
    _ZTIN6google8protobuf18DescriptorDatabaseE @5232 DATA
    _ZTIN6google8protobuf19EnumDescriptorProtoE @5233 DATA
    _ZTIN6google8protobuf19FileDescriptorProtoE @5234 DATA
    _ZTIN6google8protobuf19UninterpretedOptionE @5235 DATA
    _ZTIN6google8protobuf20FieldDescriptorProtoE @5236 DATA
    _ZTIN6google8protobuf20OneofDescriptorProtoE @5237 DATA
    _ZTIN6google8protobuf21DynamicMessageFactoryE @5238 DATA
    _ZTIN6google8protobuf21MethodDescriptorProtoE @5239 DATA
    _ZTIN6google8protobuf22DescriptorPoolDatabaseE @5240 DATA
    _ZTIN6google8protobuf22ServiceDescriptorProtoE @5241 DATA
    _ZTIN6google8protobuf23SourceCodeInfo_LocationE @5242 DATA
    _ZTIN6google8protobuf24EnumValueDescriptorProtoE @5243 DATA
    _ZTIN6google8protobuf24MergedDescriptorDatabaseE @5244 DATA
    _ZTIN6google8protobuf24SimpleDescriptorDatabaseE @5245 DATA
    _ZTIN6google8protobuf25EncodedDescriptorDatabaseE @5246 DATA
    _ZTIN6google8protobuf28UninterpretedOption_NamePartE @5247 DATA
    _ZTIN6google8protobuf2io14ErrorCollectorE @5248 DATA
    _ZTIN6google8protobuf2io15FileInputStream22CopyingFileInputStreamE @5249 DATA
    _ZTIN6google8protobuf2io15FileInputStreamE @5250 DATA
    _ZTIN6google8protobuf2io16ArrayInputStreamE @5251 DATA
    _ZTIN6google8protobuf2io16FileOutputStream23CopyingFileOutputStreamE @5252 DATA
    _ZTIN6google8protobuf2io16FileOutputStreamE @5253 DATA
    _ZTIN6google8protobuf2io17ArrayOutputStreamE @5254 DATA
    _ZTIN6google8protobuf2io18CopyingInputStreamE @5255 DATA
    _ZTIN6google8protobuf2io18IstreamInputStream25CopyingIstreamInputStreamE @5256 DATA
    _ZTIN6google8protobuf2io18IstreamInputStreamE @5257 DATA
    _ZTIN6google8protobuf2io18StringOutputStreamE @5258 DATA
    _ZTIN6google8protobuf2io19CopyingOutputStreamE @5259 DATA
    _ZTIN6google8protobuf2io19LimitingInputStreamE @5260 DATA
    _ZTIN6google8protobuf2io19OstreamOutputStream26CopyingOstreamOutputStreamE @5261 DATA
    _ZTIN6google8protobuf2io19OstreamOutputStreamE @5262 DATA
    _ZTIN6google8protobuf2io19ZeroCopyInputStreamE @5263 DATA
    _ZTIN6google8protobuf2io20ZeroCopyOutputStreamE @5264 DATA
    _ZTIN6google8protobuf2io24ConcatenatingInputStreamE @5265 DATA
    _ZTIN6google8protobuf2io25CopyingInputStreamAdaptorE @5266 DATA
    _ZTIN6google8protobuf2io26CopyingOutputStreamAdaptorE @5267 DATA
    _ZTIN6google8protobuf30DescriptorProto_ExtensionRangeE @5268 DATA
    _ZTIN6google8protobuf7ClosureE @5269 DATA
    _ZTIN6google8protobuf7MessageE @5270 DATA
    _ZTIN6google8protobuf8internal12FieldSkipperE @5271 DATA
    _ZTIN6google8protobuf8internal15ExtensionFinderE @5272 DATA
    _ZTIN6google8protobuf8internal16FunctionClosure0E @5273 DATA
    _ZTIN6google8protobuf8internal16FunctionClosure1IPSt4pairIPKNS0_20FileDescriptorTablesEPKNS0_14SourceCodeInfoEEEE @5274 DATA
    _ZTIN6google8protobuf8internal22MessageSetFieldSkipperE @5275 DATA
    _ZTIN6google8protobuf8internal24GeneratedExtensionFinderE @5276 DATA
    _ZTIN6google8protobuf8internal26GeneratedMessageReflectionE @5277 DATA
    _ZTIN6google8protobuf8internal27UnknownFieldSetFieldSkipperE @5278 DATA
    _ZTIN6google8protobuf8internal29CodedOutputStreamFieldSkipperE @5279 DATA
    _ZTIN6google8protobuf8internal29DescriptorPoolExtensionFinderE @5280 DATA
    _ZTISt9exception @5281 DATA
    _ZTS20RobotControlServices @5282 DATA
    _ZTS24RobotCommunicationClient @5283 DATA
    _ZTSN4aubo5robot13communication10OriginPoseE @5284 DATA
    _ZTSN4aubo5robot13communication11JointStatusE @5285 DATA
    _ZTSN4aubo5robot13communication12JointVersionE @5286 DATA
    _ZTSN4aubo5robot13communication13RobotTcpParamE @5287 DATA
    _ZTSN4aubo5robot13communication14RobotDiagnosisE @5288 DATA
    _ZTSN4aubo5robot13communication15OurRobotDevInfoE @5289 DATA
    _ZTSN4aubo5robot13communication15RobotToolConfigE @5290 DATA
    _ZTSN4aubo5robot13communication15RobotToolStatusE @5291 DATA
    _ZTSN4aubo5robot13communication15toolAllIOStatusE @5292 DATA
    _ZTSN4aubo5robot13communication16OrpeSafetyStatusE @5293 DATA
    _ZTSN4aubo5robot13communication17ProtoRequestLoginE @5294 DATA
    _ZTSN4aubo5robot13communication17RobotExtDiagnosisE @5295 DATA
    _ZTSN4aubo5robot13communication17RobotSafetyConfigE @5296 DATA
    _ZTSN4aubo5robot13communication17ToolDigitalStatusE @5297 DATA
    _ZTSN4aubo5robot13communication19InterfaceBoardErrorE @5298 DATA
    _ZTSN4aubo5robot13communication21RobotCollisionCurrentE @5299 DATA
    _ZTSN4aubo5robot13communication21RobotGravityComponentE @5300 DATA
    _ZTSN4aubo5robot13communication22ProtoRobotAnalogIODescE @5301 DATA
    _ZTSN4aubo5robot13communication24ProtoRobotCommonResponseE @5302 DATA
    _ZTSN4aubo5robot13communication25ProtoRobotDiagnosisIODescE @5303 DATA
    _ZTSN4aubo5robot13communication27ProtoCommunicationIntVectorE @5304 DATA
    _ZTSN4aubo5robot13communication27protoSafeCommunicationParamE @5305 DATA
    _ZTSN4aubo5robot13communication28ProtoCommunicationRobotEventE @5306 DATA
    _ZTSN4aubo5robot13communication29ProtoCommunicationGeneralDataE @5307 DATA
    _ZTSN4aubo5robot13communication30ProtoCommunicationDoubleVectorE @5308 DATA
    _ZTSN4aubo5robot13communication34ProtoCommunicationOfflineExcitTrajE @5309 DATA
    _ZTSN4aubo5robot13communication35ProtoCommunicationIntVectorResponseE @5310 DATA
    _ZTSN4aubo5robot13communication35ProtoCommunicationRobotAnalogIODataE @5311 DATA
    _ZTSN4aubo5robot13communication36ProtoCommunicationDynIdentifyResultsE @5312 DATA
    _ZTSN4aubo5robot13communication36ProtoCommunicationRobotBoardFirmwareE @5313 DATA
    _ZTSN4aubo5robot13communication36ProtoCommunicationRobotDiagnosisInfoE @5314 DATA
    _ZTSN4aubo5robot13communication37ProtoCommunicationRobotStartupProfileE @5315 DATA
    _ZTSN4aubo5robot13communication38ProtoCommunicationDoubleVectorResponseE @5316 DATA
    _ZTSN4aubo5robot13communication38ProtoCommunicationRobotDiagnosisIODataE @5317 DATA
    _ZTSN4aubo5robot13communication44ProtoCommunicationEthernetDeviceNameResponseE @5318 DATA
    _ZTSN4aubo5robot13communication45ProtoCommunicationToolAllIOStatusInfoResponseE @5319 DATA
    _ZTSN4aubo5robot13communication8TagIoCfgE @5320 DATA
    _ZTSN4aubo5robot13communication8TcpParamE @5321 DATA
    _ZTSN4aubo5robot13communication9ModbusCfgE @5322 DATA
    _ZTSN4aubo5robot6common11ToolInertiaE @5323 DATA
    _ZTSN4aubo5robot6common12joint_cart_UE @5324 DATA
    _ZTSN4aubo5robot6common14ProtoRoadPointE @5325 DATA
    _ZTSN4aubo5robot6common14RobotTeachMoveE @5326 DATA
    _ZTSN4aubo5robot6common14arrivalAhead_tE @5327 DATA
    _ZTSN4aubo5robot6common14cartesianOri_UE @5328 DATA
    _ZTSN4aubo5robot6common14cartesianPos_UE @5329 DATA
    _ZTSN4aubo5robot6common14relativeMove_tE @5330 DATA
    _ZTSN4aubo5robot6common15ProtoJointAngleE @5331 DATA
    _ZTSN4aubo5robot6common16ProtoJointStatusE @5332 DATA
    _ZTSN4aubo5robot6common16RobotJointOffsetE @5333 DATA
    _ZTSN4aubo5robot6common16RobotMoveProfileE @5334 DATA
    _ZTSN4aubo5robot6common17ToolDynamicsParamE @5335 DATA
    _ZTSN4aubo5robot6common18ProtoToolInEndDescE @5336 DATA
    _ZTSN4aubo5robot6common19RobotCommonResponseE @5337 DATA
    _ZTSN4aubo5robot6common19ToolKinematicsParamE @5338 DATA
    _ZTSN4aubo5robot6common21ProtoOrpeSafetyStatusE @5339 DATA
    _ZTSN4aubo5robot6common22ProtoRobotSafetyConfigE @5340 DATA
    _ZTSN4aubo5robot6common23ProtoJointAngleResponseE @5341 DATA
    _ZTSN4aubo5robot6common24ProtoRobotMoveFuncResultE @5342 DATA
    _ZTSN4aubo5robot6common25ProtoResponseRobotDevInfoE @5343 DATA
    _ZTSN4aubo5robot6common25ProtoResponseRobotDhParamE @5344 DATA
    _ZTSN4aubo5robot6common26ProtoResponseRobotTcpParamE @5345 DATA
    _ZTSN4aubo5robot6common28ProtoConveyorTrackValuePointE @5346 DATA
    _ZTSN4aubo5robot6common29ProtoResponseOrpeSafetyStatusE @5347 DATA
    _ZTSN4aubo5robot6common30ProtoResponseRobotSafetyConfigE @5348 DATA
    _ZTSN4aubo5robot6common32ProtoRobotAllJointStatusResponseE @5349 DATA
    _ZTSN4aubo5robot6common34ProtoResponseRobotCollisionCurrentE @5350 DATA
    _ZTSN4aubo5robot6common34ProtoResponseRobotGravityComponentE @5351 DATA
    _ZTSN4aubo5robot6common3OriE @5352 DATA
    _ZTSN4aubo5robot6common3PosE @5353 DATA
    _ZTSN4aubo5robot6common7DhParamE @5354 DATA
    _ZTSN4aubo5robot6common9RobotMoveE @5355 DATA
    _ZTSN4aubo5robot6common9ToolParamE @5356 DATA
    _ZTSN6google8protobuf10ReflectionE @5357 DATA
    _ZTSN6google8protobuf10TextFormat17FieldValuePrinterE @5358 DATA
    _ZTSN6google8protobuf10TextFormat6FinderE @5359 DATA
    _ZTSN6google8protobuf10TextFormat6Parser10ParserImpl20ParserErrorCollectorE @5360 DATA
    _ZTSN6google8protobuf11EnumOptionsE @5361 DATA
    _ZTSN6google8protobuf11FileOptionsE @5362 DATA
    _ZTSN6google8protobuf11MessageLiteE @5363 DATA
    _ZTSN6google8protobuf12FieldOptionsE @5364 DATA
    _ZTSN6google8protobuf13MethodOptionsE @5365 DATA
    _ZTSN6google8protobuf14DescriptorPool14ErrorCollectorE @5366 DATA
    _ZTSN6google8protobuf14DynamicMessageE @5367 DATA
    _ZTSN6google8protobuf14FatalExceptionE @5368 DATA
    _ZTSN6google8protobuf14MessageFactoryE @5369 DATA
    _ZTSN6google8protobuf14MessageOptionsE @5370 DATA
    _ZTSN6google8protobuf14ServiceOptionsE @5371 DATA
    _ZTSN6google8protobuf14SourceCodeInfoE @5372 DATA
    _ZTSN6google8protobuf15DescriptorProtoE @5373 DATA
    _ZTSN6google8protobuf16EnumValueOptionsE @5374 DATA
    _ZTSN6google8protobuf17DescriptorBuilder17OptionInterpreter21AggregateOptionFinderE @5375 DATA
    _ZTSN6google8protobuf17FileDescriptorSetE @5376 DATA
    _ZTSN6google8protobuf18DescriptorDatabaseE @5377 DATA
    _ZTSN6google8protobuf19EnumDescriptorProtoE @5378 DATA
    _ZTSN6google8protobuf19FileDescriptorProtoE @5379 DATA
    _ZTSN6google8protobuf19UninterpretedOptionE @5380 DATA
    _ZTSN6google8protobuf20FieldDescriptorProtoE @5381 DATA
    _ZTSN6google8protobuf20OneofDescriptorProtoE @5382 DATA
    _ZTSN6google8protobuf21DynamicMessageFactoryE @5383 DATA
    _ZTSN6google8protobuf21MethodDescriptorProtoE @5384 DATA
    _ZTSN6google8protobuf22DescriptorPoolDatabaseE @5385 DATA
    _ZTSN6google8protobuf22ServiceDescriptorProtoE @5386 DATA
    _ZTSN6google8protobuf23SourceCodeInfo_LocationE @5387 DATA
    _ZTSN6google8protobuf24EnumValueDescriptorProtoE @5388 DATA
    _ZTSN6google8protobuf24MergedDescriptorDatabaseE @5389 DATA
    _ZTSN6google8protobuf24SimpleDescriptorDatabaseE @5390 DATA
    _ZTSN6google8protobuf25EncodedDescriptorDatabaseE @5391 DATA
    _ZTSN6google8protobuf28UninterpretedOption_NamePartE @5392 DATA
    _ZTSN6google8protobuf2io14ErrorCollectorE @5393 DATA
    _ZTSN6google8protobuf2io15FileInputStream22CopyingFileInputStreamE @5394 DATA
    _ZTSN6google8protobuf2io15FileInputStreamE @5395 DATA
    _ZTSN6google8protobuf2io16ArrayInputStreamE @5396 DATA
    _ZTSN6google8protobuf2io16FileOutputStream23CopyingFileOutputStreamE @5397 DATA
    _ZTSN6google8protobuf2io16FileOutputStreamE @5398 DATA
    _ZTSN6google8protobuf2io17ArrayOutputStreamE @5399 DATA
    _ZTSN6google8protobuf2io18CopyingInputStreamE @5400 DATA
    _ZTSN6google8protobuf2io18IstreamInputStream25CopyingIstreamInputStreamE @5401 DATA
    _ZTSN6google8protobuf2io18IstreamInputStreamE @5402 DATA
    _ZTSN6google8protobuf2io18StringOutputStreamE @5403 DATA
    _ZTSN6google8protobuf2io19CopyingOutputStreamE @5404 DATA
    _ZTSN6google8protobuf2io19LimitingInputStreamE @5405 DATA
    _ZTSN6google8protobuf2io19OstreamOutputStream26CopyingOstreamOutputStreamE @5406 DATA
    _ZTSN6google8protobuf2io19OstreamOutputStreamE @5407 DATA
    _ZTSN6google8protobuf2io19ZeroCopyInputStreamE @5408 DATA
    _ZTSN6google8protobuf2io20ZeroCopyOutputStreamE @5409 DATA
    _ZTSN6google8protobuf2io24ConcatenatingInputStreamE @5410 DATA
    _ZTSN6google8protobuf2io25CopyingInputStreamAdaptorE @5411 DATA
    _ZTSN6google8protobuf2io26CopyingOutputStreamAdaptorE @5412 DATA
    _ZTSN6google8protobuf30DescriptorProto_ExtensionRangeE @5413 DATA
    _ZTSN6google8protobuf7ClosureE @5414 DATA
    _ZTSN6google8protobuf7MessageE @5415 DATA
    _ZTSN6google8protobuf8internal12FieldSkipperE @5416 DATA
    _ZTSN6google8protobuf8internal15ExtensionFinderE @5417 DATA
    _ZTSN6google8protobuf8internal16FunctionClosure0E @5418 DATA
    _ZTSN6google8protobuf8internal16FunctionClosure1IPSt4pairIPKNS0_20FileDescriptorTablesEPKNS0_14SourceCodeInfoEEEE @5419 DATA
    _ZTSN6google8protobuf8internal22MessageSetFieldSkipperE @5420 DATA
    _ZTSN6google8protobuf8internal24GeneratedExtensionFinderE @5421 DATA
    _ZTSN6google8protobuf8internal26GeneratedMessageReflectionE @5422 DATA
    _ZTSN6google8protobuf8internal27UnknownFieldSetFieldSkipperE @5423 DATA
    _ZTSN6google8protobuf8internal29CodedOutputStreamFieldSkipperE @5424 DATA
    _ZTSN6google8protobuf8internal29DescriptorPoolExtensionFinderE @5425 DATA
    _ZTSSt9exception @5426 DATA
    _ZTV20RobotControlServices @5427 DATA
    _ZTV24RobotCommunicationClient @5428 DATA
    _ZTVN4aubo5robot13communication10OriginPoseE @5429 DATA
    _ZTVN4aubo5robot13communication11JointStatusE @5430 DATA
    _ZTVN4aubo5robot13communication12JointVersionE @5431 DATA
    _ZTVN4aubo5robot13communication13RobotTcpParamE @5432 DATA
    _ZTVN4aubo5robot13communication14RobotDiagnosisE @5433 DATA
    _ZTVN4aubo5robot13communication15OurRobotDevInfoE @5434 DATA
    _ZTVN4aubo5robot13communication15RobotToolConfigE @5435 DATA
    _ZTVN4aubo5robot13communication15RobotToolStatusE @5436 DATA
    _ZTVN4aubo5robot13communication15toolAllIOStatusE @5437 DATA
    _ZTVN4aubo5robot13communication16OrpeSafetyStatusE @5438 DATA
    _ZTVN4aubo5robot13communication17ProtoRequestLoginE @5439 DATA
    _ZTVN4aubo5robot13communication17RobotExtDiagnosisE @5440 DATA
    _ZTVN4aubo5robot13communication17RobotSafetyConfigE @5441 DATA
    _ZTVN4aubo5robot13communication17ToolDigitalStatusE @5442 DATA
    _ZTVN4aubo5robot13communication19InterfaceBoardErrorE @5443 DATA
    _ZTVN4aubo5robot13communication21RobotCollisionCurrentE @5444 DATA
    _ZTVN4aubo5robot13communication21RobotGravityComponentE @5445 DATA
    _ZTVN4aubo5robot13communication22ProtoRobotAnalogIODescE @5446 DATA
    _ZTVN4aubo5robot13communication24ProtoRobotCommonResponseE @5447 DATA
    _ZTVN4aubo5robot13communication25ProtoRobotDiagnosisIODescE @5448 DATA
    _ZTVN4aubo5robot13communication27ProtoCommunicationIntVectorE @5449 DATA
    _ZTVN4aubo5robot13communication27protoSafeCommunicationParamE @5450 DATA
    _ZTVN4aubo5robot13communication28ProtoCommunicationRobotEventE @5451 DATA
    _ZTVN4aubo5robot13communication29ProtoCommunicationGeneralDataE @5452 DATA
    _ZTVN4aubo5robot13communication30ProtoCommunicationDoubleVectorE @5453 DATA
    _ZTVN4aubo5robot13communication34ProtoCommunicationOfflineExcitTrajE @5454 DATA
    _ZTVN4aubo5robot13communication35ProtoCommunicationIntVectorResponseE @5455 DATA
    _ZTVN4aubo5robot13communication35ProtoCommunicationRobotAnalogIODataE @5456 DATA
    _ZTVN4aubo5robot13communication36ProtoCommunicationDynIdentifyResultsE @5457 DATA
    _ZTVN4aubo5robot13communication36ProtoCommunicationRobotBoardFirmwareE @5458 DATA
    _ZTVN4aubo5robot13communication36ProtoCommunicationRobotDiagnosisInfoE @5459 DATA
    _ZTVN4aubo5robot13communication37ProtoCommunicationRobotStartupProfileE @5460 DATA
    _ZTVN4aubo5robot13communication38ProtoCommunicationDoubleVectorResponseE @5461 DATA
    _ZTVN4aubo5robot13communication38ProtoCommunicationRobotDiagnosisIODataE @5462 DATA
    _ZTVN4aubo5robot13communication44ProtoCommunicationEthernetDeviceNameResponseE @5463 DATA
    _ZTVN4aubo5robot13communication45ProtoCommunicationToolAllIOStatusInfoResponseE @5464 DATA
    _ZTVN4aubo5robot13communication8TagIoCfgE @5465 DATA
    _ZTVN4aubo5robot13communication8TcpParamE @5466 DATA
    _ZTVN4aubo5robot13communication9ModbusCfgE @5467 DATA
    _ZTVN4aubo5robot6common11ToolInertiaE @5468 DATA
    _ZTVN4aubo5robot6common12joint_cart_UE @5469 DATA
    _ZTVN4aubo5robot6common14ProtoRoadPointE @5470 DATA
    _ZTVN4aubo5robot6common14RobotTeachMoveE @5471 DATA
    _ZTVN4aubo5robot6common14arrivalAhead_tE @5472 DATA
    _ZTVN4aubo5robot6common14cartesianOri_UE @5473 DATA
    _ZTVN4aubo5robot6common14cartesianPos_UE @5474 DATA
    _ZTVN4aubo5robot6common14relativeMove_tE @5475 DATA
    _ZTVN4aubo5robot6common15ProtoJointAngleE @5476 DATA
    _ZTVN4aubo5robot6common16ProtoJointStatusE @5477 DATA
    _ZTVN4aubo5robot6common16RobotJointOffsetE @5478 DATA
    _ZTVN4aubo5robot6common16RobotMoveProfileE @5479 DATA
    _ZTVN4aubo5robot6common17ToolDynamicsParamE @5480 DATA
    _ZTVN4aubo5robot6common18ProtoToolInEndDescE @5481 DATA
    _ZTVN4aubo5robot6common19RobotCommonResponseE @5482 DATA
    _ZTVN4aubo5robot6common19ToolKinematicsParamE @5483 DATA
    _ZTVN4aubo5robot6common21ProtoOrpeSafetyStatusE @5484 DATA
    _ZTVN4aubo5robot6common22ProtoRobotSafetyConfigE @5485 DATA
    _ZTVN4aubo5robot6common23ProtoJointAngleResponseE @5486 DATA
    _ZTVN4aubo5robot6common24ProtoRobotMoveFuncResultE @5487 DATA
    _ZTVN4aubo5robot6common25ProtoResponseRobotDevInfoE @5488 DATA
    _ZTVN4aubo5robot6common25ProtoResponseRobotDhParamE @5489 DATA
    _ZTVN4aubo5robot6common26ProtoResponseRobotTcpParamE @5490 DATA
    _ZTVN4aubo5robot6common28ProtoConveyorTrackValuePointE @5491 DATA
    _ZTVN4aubo5robot6common29ProtoResponseOrpeSafetyStatusE @5492 DATA
    _ZTVN4aubo5robot6common30ProtoResponseRobotSafetyConfigE @5493 DATA
    _ZTVN4aubo5robot6common32ProtoRobotAllJointStatusResponseE @5494 DATA
    _ZTVN4aubo5robot6common34ProtoResponseRobotCollisionCurrentE @5495 DATA
    _ZTVN4aubo5robot6common34ProtoResponseRobotGravityComponentE @5496 DATA
    _ZTVN4aubo5robot6common3OriE @5497 DATA
    _ZTVN4aubo5robot6common3PosE @5498 DATA
    _ZTVN4aubo5robot6common7DhParamE @5499 DATA
    _ZTVN4aubo5robot6common9RobotMoveE @5500 DATA
    _ZTVN4aubo5robot6common9ToolParamE @5501 DATA
    _ZTVN6google8protobuf10ReflectionE @5502 DATA
    _ZTVN6google8protobuf10TextFormat17FieldValuePrinterE @5503 DATA
    _ZTVN6google8protobuf10TextFormat6FinderE @5504 DATA
    _ZTVN6google8protobuf10TextFormat6Parser10ParserImpl20ParserErrorCollectorE @5505 DATA
    _ZTVN6google8protobuf11EnumOptionsE @5506 DATA
    _ZTVN6google8protobuf11FileOptionsE @5507 DATA
    _ZTVN6google8protobuf11MessageLiteE @5508 DATA
    _ZTVN6google8protobuf12FieldOptionsE @5509 DATA
    _ZTVN6google8protobuf13MethodOptionsE @5510 DATA
    _ZTVN6google8protobuf14DescriptorPool14ErrorCollectorE @5511 DATA
    _ZTVN6google8protobuf14DynamicMessageE @5512 DATA
    _ZTVN6google8protobuf14FatalExceptionE @5513 DATA
    _ZTVN6google8protobuf14MessageFactoryE @5514 DATA
    _ZTVN6google8protobuf14MessageOptionsE @5515 DATA
    _ZTVN6google8protobuf14ServiceOptionsE @5516 DATA
    _ZTVN6google8protobuf14SourceCodeInfoE @5517 DATA
    _ZTVN6google8protobuf15DescriptorProtoE @5518 DATA
    _ZTVN6google8protobuf16EnumValueOptionsE @5519 DATA
    _ZTVN6google8protobuf17DescriptorBuilder17OptionInterpreter21AggregateOptionFinderE @5520 DATA
    _ZTVN6google8protobuf17FileDescriptorSetE @5521 DATA
    _ZTVN6google8protobuf18DescriptorDatabaseE @5522 DATA
    _ZTVN6google8protobuf19EnumDescriptorProtoE @5523 DATA
    _ZTVN6google8protobuf19FileDescriptorProtoE @5524 DATA
    _ZTVN6google8protobuf19UninterpretedOptionE @5525 DATA
    _ZTVN6google8protobuf20FieldDescriptorProtoE @5526 DATA
    _ZTVN6google8protobuf20OneofDescriptorProtoE @5527 DATA
    _ZTVN6google8protobuf21DynamicMessageFactoryE @5528 DATA
    _ZTVN6google8protobuf21MethodDescriptorProtoE @5529 DATA
    _ZTVN6google8protobuf22DescriptorPoolDatabaseE @5530 DATA
    _ZTVN6google8protobuf22ServiceDescriptorProtoE @5531 DATA
    _ZTVN6google8protobuf23SourceCodeInfo_LocationE @5532 DATA
    _ZTVN6google8protobuf24EnumValueDescriptorProtoE @5533 DATA
    _ZTVN6google8protobuf24MergedDescriptorDatabaseE @5534 DATA
    _ZTVN6google8protobuf24SimpleDescriptorDatabaseE @5535 DATA
    _ZTVN6google8protobuf25EncodedDescriptorDatabaseE @5536 DATA
    _ZTVN6google8protobuf28UninterpretedOption_NamePartE @5537 DATA
    _ZTVN6google8protobuf2io14ErrorCollectorE @5538 DATA
    _ZTVN6google8protobuf2io15FileInputStream22CopyingFileInputStreamE @5539 DATA
    _ZTVN6google8protobuf2io15FileInputStreamE @5540 DATA
    _ZTVN6google8protobuf2io16ArrayInputStreamE @5541 DATA
    _ZTVN6google8protobuf2io16FileOutputStream23CopyingFileOutputStreamE @5542 DATA
    _ZTVN6google8protobuf2io16FileOutputStreamE @5543 DATA
    _ZTVN6google8protobuf2io17ArrayOutputStreamE @5544 DATA
    _ZTVN6google8protobuf2io18CopyingInputStreamE @5545 DATA
    _ZTVN6google8protobuf2io18IstreamInputStream25CopyingIstreamInputStreamE @5546 DATA
    _ZTVN6google8protobuf2io18IstreamInputStreamE @5547 DATA
    _ZTVN6google8protobuf2io18StringOutputStreamE @5548 DATA
    _ZTVN6google8protobuf2io19CopyingOutputStreamE @5549 DATA
    _ZTVN6google8protobuf2io19LimitingInputStreamE @5550 DATA
    _ZTVN6google8protobuf2io19OstreamOutputStream26CopyingOstreamOutputStreamE @5551 DATA
    _ZTVN6google8protobuf2io19OstreamOutputStreamE @5552 DATA
    _ZTVN6google8protobuf2io19ZeroCopyInputStreamE @5553 DATA
    _ZTVN6google8protobuf2io20ZeroCopyOutputStreamE @5554 DATA
    _ZTVN6google8protobuf2io24ConcatenatingInputStreamE @5555 DATA
    _ZTVN6google8protobuf2io25CopyingInputStreamAdaptorE @5556 DATA
    _ZTVN6google8protobuf2io26CopyingOutputStreamAdaptorE @5557 DATA
    _ZTVN6google8protobuf30DescriptorProto_ExtensionRangeE @5558 DATA
    _ZTVN6google8protobuf7ClosureE @5559 DATA
    _ZTVN6google8protobuf7MessageE @5560 DATA
    _ZTVN6google8protobuf8internal12FieldSkipperE @5561 DATA
    _ZTVN6google8protobuf8internal15ExtensionFinderE @5562 DATA
    _ZTVN6google8protobuf8internal16FunctionClosure0E @5563 DATA
    _ZTVN6google8protobuf8internal16FunctionClosure1IPSt4pairIPKNS0_20FileDescriptorTablesEPKNS0_14SourceCodeInfoEEEE @5564 DATA
    _ZTVN6google8protobuf8internal22MessageSetFieldSkipperE @5565 DATA
    _ZTVN6google8protobuf8internal24GeneratedExtensionFinderE @5566 DATA
    _ZTVN6google8protobuf8internal26GeneratedMessageReflectionE @5567 DATA
    _ZTVN6google8protobuf8internal27UnknownFieldSetFieldSkipperE @5568 DATA
    _ZTVN6google8protobuf8internal29CodedOutputStreamFieldSkipperE @5569 DATA
    _ZTVN6google8protobuf8internal29DescriptorPoolExtensionFinderE @5570 DATA
    _ZZN9rapidjson12GenericValueINS_4UTF8IcEENS_19MemoryPoolAllocatorINS_12CrtAllocatorEEEEixIS5_EERS6_RKNS0_IS2_T_EEE6buffer @5571 DATA
    _ZZN9rapidjson13GenericReaderINS_4UTF8IcEES2_NS_12CrtAllocatorEE19ParseStringToStreamILj0ES2_S2_NS_19GenericStringStreamIS2_EENS4_11StackStreamIcEEEEvRT2_RT3_E6escape @5572 DATA
    _ZZN9rapidjson6WriterINS_19GenericStringBufferINS_4UTF8IcEENS_12CrtAllocatorEEES3_S3_S4_Lj0EE11WriteStringEPKcjE6escape @5573 DATA
    _ZZN9rapidjson6WriterINS_19GenericStringBufferINS_4UTF8IcEENS_12CrtAllocatorEEES3_S3_S4_Lj0EE11WriteStringEPKcjE9hexDigits @5574 DATA
    _ZZN9rapidjson8internal12GetDigitsLutEvE10cDigitsLut @5575 DATA
    _ZZN9rapidjson8internal21GetCachedPowerByIndexEjE15kCachedPowers_E @5576 DATA
    _ZZN9rapidjson8internal21GetCachedPowerByIndexEjE15kCachedPowers_F @5577 DATA
    _ZZN9rapidjson8internal5Pow10EiE1e @5578 DATA
    _ZZN9rapidjson8internal8DigitGenERKNS0_5DiyFpES3_yPcPiS5_E6kPow10 @5579 DATA
    _ZnwjPv @5580
    a2 @5581 DATA
    a3 @5582 DATA
    d1 @5583 DATA
    d2 @5584 DATA
    d4 @5585 DATA
    d5 @5586 DATA
    d6 @5587 DATA
    g_mutex @5588 DATA
    g_res @5589 DATA
    g_rs_instance @5590 DATA
    print_move_relative_offset @5591
    print_plan @5592
    print_tool_dynamics @5593
    print_waypoint @5594
    robot_type @5595 DATA
    rs_add_waypoint @5596
    rs_append_offline_track_file @5597
    rs_append_offline_track_waypoint @5598
    rs_base_to_base_additional_tool @5599
    rs_base_to_user @5600
    rs_check_user_coord @5601
    rs_clear_offline_track @5602
    rs_collision_recover @5603
    rs_create_context @5604
    rs_destory_context @5605
    rs_enable_push_realtime_end_speed @5606
    rs_enable_push_realtime_joint_status @5607
    rs_enable_push_realtime_roadpoint @5608
    rs_enter_tcp2canbus_mode @5609
    rs_forward_kin @5610
    rs_get_board_io_config @5611
    rs_get_board_io_status_by_addr @5612
    rs_get_board_io_status_by_name @5613
    rs_get_current_waypoint @5614
    rs_get_device_info @5615
    rs_get_diagnosis_info @5616
    rs_get_dynidentify_results @5617
    rs_get_global_end_max_angle_acc @5618
    rs_get_global_end_max_angle_velc @5619
    rs_get_global_end_max_line_acc @5620
    rs_get_global_end_max_line_velc @5621
    rs_get_global_joint_maxacc @5622
    rs_get_global_joint_maxvelc @5623
    rs_get_gravity_component @5624
    rs_get_joint_status @5625
    rs_get_login_status @5626
    rs_get_robot_end_speed @5627
    rs_get_robot_state @5628
    rs_get_socket_status @5629
    rs_get_tool_dynamics_param @5630
    rs_get_tool_io_status @5631
    rs_get_tool_kinematics_param @5632
    rs_get_tool_power_type @5633
    rs_get_tool_power_voltage @5634
    rs_get_work_mode @5635
    rs_init_global_move_profile @5636
    rs_initialize @5637
    rs_inverse_kin @5638
    rs_is_have_real_robot @5639
    rs_is_online_master_mode @5640
    rs_is_online_mode @5641
    rs_leave_tcp2canbus_mode @5642
    rs_login @5643
    rs_logout @5644
    rs_move_continue @5645
    rs_move_fast_stop @5646
    rs_move_joint @5647
    rs_move_joint_to @5648
    rs_move_line @5649
    rs_move_line_to @5650
    rs_move_pause @5651
    rs_move_rotate @5652
    rs_move_stop @5653
    rs_move_track @5654
    rs_quaternion_to_rpy @5655
    rs_remove_all_waypoint @5656
    rs_robot_shutdown @5657
    rs_robot_startup @5658
    rs_rpy_to_quaternion @5659
    rs_set_arrival_ahead_blend @5660
    rs_set_arrival_ahead_distance @5661
    rs_set_arrival_ahead_time @5662
    rs_set_base_coord @5663
    rs_set_blend_radius @5664
    rs_set_board_io_status_by_addr @5665
    rs_set_board_io_status_by_name @5666
    rs_set_circular_loop_times @5667
    rs_set_collision_class @5668
    rs_set_global_end_max_angle_acc @5669
    rs_set_global_end_max_angle_velc @5670
    rs_set_global_end_max_line_acc @5671
    rs_set_global_end_max_line_velc @5672
    rs_set_global_joint_maxacc @5673
    rs_set_global_joint_maxvelc @5674
    rs_set_no_arrival_ahead @5675
    rs_set_none_tool_dynamics_param @5676
    rs_set_none_tool_kinematics_param @5677
    rs_set_relative_offset_on_base @5678
    rs_set_relative_offset_on_user @5679
    rs_set_teach_coord @5680
    rs_set_tool_do_status @5681
    rs_set_tool_dynamics_param @5682
    rs_set_tool_end_param @5683
    rs_set_tool_io_type @5684
    rs_set_tool_kinematics_param @5685
    rs_set_tool_power_type @5686
    rs_set_user_coord @5687
    rs_set_waypoint_to_canbus @5688
    rs_set_waypoints_to_canbus @5689
    rs_set_work_mode @5690
    rs_setcallback_realtime_end_speed @5691
    rs_setcallback_realtime_joint_status @5692
    rs_setcallback_realtime_roadpoint @5693
    rs_setcallback_robot_event @5694
    rs_startup_excit_traj_track @5695
    rs_startup_offline_track @5696
    rs_stop_offline_track @5697
    rs_teach_move_start @5698
    rs_teach_move_stop @5699
    rs_uninitialize @5700
    rs_user_to_base @5701

IMPORTS

    libconfig.dll.config_clear
    libconfig.dll.config_default_include_func
    libconfig.dll.config_destroy
    libconfig.dll.config_get_float_precision
    libconfig.dll.config_get_option
    libconfig.dll.config_get_options
    libconfig.dll.config_get_tab_width
    libconfig.dll.config_init
    libconfig.dll.config_lookup
    libconfig.dll.config_lookup_bool
    libconfig.dll.config_lookup_float
    libconfig.dll.config_lookup_int
    libconfig.dll.config_lookup_int64
    libconfig.dll.config_lookup_string
    libconfig.dll.config_read
    libconfig.dll.config_read_file
    libconfig.dll.config_read_string
    libconfig.dll.config_set_destructor
    libconfig.dll.config_set_float_precision
    libconfig.dll.config_set_hook
    libconfig.dll.config_set_include_dir
    libconfig.dll.config_set_include_func
    libconfig.dll.config_set_option
    libconfig.dll.config_set_options
    libconfig.dll.config_set_tab_width
    libconfig.dll.config_setting_add
    libconfig.dll.config_setting_get_bool
    libconfig.dll.config_setting_get_bool_elem
    libconfig.dll.config_setting_get_elem
    libconfig.dll.config_setting_get_float
    libconfig.dll.config_setting_get_float_elem
    libconfig.dll.config_setting_get_format
    libconfig.dll.config_setting_get_int
    libconfig.dll.config_setting_get_int64
    libconfig.dll.config_setting_get_int64_elem
    libconfig.dll.config_setting_get_int_elem
    libconfig.dll.config_setting_get_member
    libconfig.dll.config_setting_get_string
    libconfig.dll.config_setting_get_string_elem
    libconfig.dll.config_setting_index
    libconfig.dll.config_setting_is_aggregate
    libconfig.dll.config_setting_is_scalar
    libconfig.dll.config_setting_length
    libconfig.dll.config_setting_lookup
    libconfig.dll.config_setting_lookup_bool
    libconfig.dll.config_setting_lookup_float
    libconfig.dll.config_setting_lookup_int
    libconfig.dll.config_setting_lookup_int64
    libconfig.dll.config_setting_lookup_string
    libconfig.dll.config_setting_remove
    libconfig.dll.config_setting_remove_elem
    libconfig.dll.config_setting_set_bool
    libconfig.dll.config_setting_set_bool_elem
    libconfig.dll.config_setting_set_float
    libconfig.dll.config_setting_set_float_elem
    libconfig.dll.config_setting_set_format
    libconfig.dll.config_setting_set_hook
    libconfig.dll.config_setting_set_int
    libconfig.dll.config_setting_set_int64
    libconfig.dll.config_setting_set_int64_elem
    libconfig.dll.config_setting_set_int_elem
    libconfig.dll.config_setting_set_string
    libconfig.dll.config_setting_set_string_elem
    libconfig.dll.config_write
    libconfig.dll.config_write_file
